(lp0
S'25-34\n'
p1
aS'35-49\n'
p2
aS'18-24\n'
p3
aS'35-49\n'
p4
aS'50-64\n'
p5
aS'35-49\n'
p6
aS'50-64\n'
p7
aS'35-49\n'
p8
aS'35-49\n'
p9
aS'35-49\n'
p10
aS'25-34\n'
p11
aS'25-34\n'
p12
aS'25-34\n'
p13
aS'35-49\n'
p14
aS'35-49\n'
p15
aS'50-64\n'
p16
aS'25-34\n'
p17
aS'35-49\n'
p18
aS'25-34\n'
p19
aS'35-49\n'
p20
aS'50-64\n'
p21
aS'35-49\n'
p22
aS'35-49\n'
p23
aS'50-64\n'
p24
aS'35-49\n'
p25
aS'35-49\n'
p26
aS'25-34\n'
p27
aS'25-34\n'
p28
aS'35-49\n'
p29
aS'18-24\n'
p30
aS'25-34\n'
p31
aS'35-49\n'
p32
aS'50-64\n'
p33
aS'25-34\n'
p34
aS'65-xx\n'
p35
aS'35-49\n'
p36
aS'35-49\n'
p37
aS'25-34\n'
p38
aS'25-34\n'
p39
aS'35-49\n'
p40
aS'35-49\n'
p41
aS'25-34\n'
p42
aS'35-49\n'
p43
aS'35-49\n'
p44
aS'18-24\n'
p45
aS'50-64\n'
p46
aS'50-64\n'
p47
aS'35-49\n'
p48
aS'25-34\n'
p49
aS'25-34\n'
p50
aS'50-64\n'
p51
aS'35-49\n'
p52
aS'50-64\n'
p53
aS'35-49\n'
p54
aS'35-49\n'
p55
aS'35-49\n'
p56
aS'25-34\n'
p57
aS'18-24\n'
p58
aS'25-34\n'
p59
aS'35-49\n'
p60
aS'35-49\n'
p61
aS'35-49\n'
p62
aS'25-34\n'
p63
aS'25-34\n'
p64
aS'50-64\n'
p65
aS'50-64\n'
p66
aS'25-34\n'
p67
aS'50-64\n'
p68
aS'50-64\n'
p69
aS'35-49\n'
p70
aS'35-49\n'
p71
aS'35-49\n'
p72
aS'35-49\n'
p73
aS'25-34\n'
p74
aS'25-34\n'
p75
aS'35-49\n'
p76
aS'35-49\n'
p77
aS'50-64\n'
p78
aS'25-34\n'
p79
aS'25-34\n'
p80
aS'25-34\n'
p81
aS'18-24\n'
p82
aS'35-49\n'
p83
aS'25-34\n'
p84
aS'35-49\n'
p85
aS'25-34\n'
p86
aS'35-49\n'
p87
aS'18-24\n'
p88
aS'25-34\n'
p89
aS'35-49\n'
p90
aS'35-49\n'
p91
aS'35-49\n'
p92
aS'35-49\n'
p93
aS'50-64\n'
p94
aS'25-34\n'
p95
aS'50-64\n'
p96
aS'25-34\n'
p97
aS'35-49\n'
p98
aS'35-49\n'
p99
aS'35-49\n'
p100
aS'25-34\n'
p101
aS'25-34\n'
p102
aS'35-49\n'
p103
aS'35-49\n'
p104
aS'25-34\n'
p105
aS'35-49\n'
p106
aS'25-34\n'
p107
aS'65-xx\n'
p108
aS'25-34\n'
p109
aS'50-64\n'
p110
aS'50-64\n'
p111
aS'25-34\n'
p112
aS'18-24\n'
p113
aS'18-24\n'
p114
aS'50-64\n'
p115
aS'35-49\n'
p116
aS'25-34\n'
p117
aS'18-24\n'
p118
aS'35-49\n'
p119
aS'18-24\n'
p120
aS'18-24\n'
p121
aS'35-49\n'
p122
aS'35-49\n'
p123
aS'35-49\n'
p124
aS'25-34\n'
p125
aS'18-24\n'
p126
aS'35-49\n'
p127
aS'35-49\n'
p128
aS'35-49\n'
p129
aS'35-49\n'
p130
aS'25-34\n'
p131
aS'50-64\n'
p132
aS'25-34\n'
p133
aS'25-34\n'
p134
aS'50-64\n'
p135
aS'18-24\n'
p136
aS'50-64\n'
p137
aS'35-49\n'
p138
aS'35-49\n'
p139
aS'25-34\n'
p140
aS'35-49\n'
p141
aS'18-24\n'
p142
aS'35-49\n'
p143
aS'35-49\n'
p144
aS'35-49\n'
p145
aS'50-64\n'
p146
aS'35-49\n'
p147
aS'50-64\n'
p148
aS'25-34\n'
p149
aS'35-49\n'
p150
aS'25-34\n'
p151
aS'25-34\n'
p152
aS'50-64\n'
p153
aS'35-49\n'
p154
aS'35-49\n'
p155
aS'50-64\n'
p156
aS'50-64\n'
p157
aS'50-64\n'
p158
aS'50-64\n'
p159
aS'35-49\n'
p160
aS'50-64\n'
p161
aS'25-34\n'
p162
aS'35-49\n'
p163
aS'65-xx\n'
p164
aS'35-49\n'
p165
aS'35-49\n'
p166
aS'25-34\n'
p167
aS'25-34\n'
p168
aS'50-64\n'
p169
aS'25-34\n'
p170
aS'50-64\n'
p171
aS'25-34\n'
p172
aS'35-49\n'
p173
aS'25-34\n'
p174
aS'25-34\n'
p175
aS'25-34\n'
p176
aS'25-34\n'
p177
aS'50-64\n'
p178
aS'50-64\n'
p179
aS'35-49\n'
p180
aS'35-49\n'
p181
aS'35-49\n'
p182
aS'25-34\n'
p183
aS'25-34\n'
p184
aS'25-34\n'
p185
aS'35-49\n'
p186
aS'35-49\n'
p187
aS'35-49\n'
p188
aS'18-24\n'
p189
aS'35-49\n'
p190
aS'50-64\n'
p191
aS'35-49\n'
p192
aS'25-34\n'
p193
aS'50-64\n'
p194
aS'50-64\n'
p195
aS'35-49\n'
p196
aS'50-64\n'
p197
aS'25-34\n'
p198
aS'35-49\n'
p199
aS'35-49\n'
p200
aS'35-49\n'
p201
aS'50-64\n'
p202
aS'25-34\n'
p203
aS'50-64\n'
p204
aS'35-49\n'
p205
aS'50-64\n'
p206
aS'18-24\n'
p207
aS'35-49\n'
p208
aS'50-64\n'
p209
aS'50-64\n'
p210
aS'50-64\n'
p211
aS'50-64\n'
p212
aS'18-24\n'
p213
aS'50-64\n'
p214
aS'35-49\n'
p215
aS'35-49\n'
p216
aS'25-34\n'
p217
aS'35-49\n'
p218
aS'35-49\n'
p219
aS'35-49\n'
p220
aS'25-34\n'
p221
aS'25-34\n'
p222
aS'25-34\n'
p223
aS'35-49\n'
p224
aS'35-49\n'
p225
aS'35-49\n'
p226
aS'25-34\n'
p227
aS'50-64\n'
p228
aS'25-34\n'
p229
aS'25-34\n'
p230
aS'35-49\n'
p231
aS'50-64\n'
p232
aS'35-49\n'
p233
aS'35-49\n'
p234
aS'35-49\n'
p235
aS'35-49\n'
p236
aS'35-49\n'
p237
aS'25-34\n'
p238
aS'25-34\n'
p239
aS'25-34\n'
p240
aS'25-34\n'
p241
aS'25-34\n'
p242
aS'25-34\n'
p243
aS'25-34\n'
p244
aS'35-49\n'
p245
aS'25-34\n'
p246
aS'25-34\n'
p247
aS'35-49\n'
p248
aS'35-49\n'
p249
aS'65-xx\n'
p250
aS'35-49\n'
p251
aS'35-49\n'
p252
aS'50-64\n'
p253
aS'50-64\n'
p254
aS'50-64\n'
p255
aS'35-49\n'
p256
aS'25-34\n'
p257
aS'50-64\n'
p258
aS'35-49\n'
p259
aS'35-49\n'
p260
aS'50-64\n'
p261
aS'50-64\n'
p262
aS'25-34\n'
p263
aS'35-49\n'
p264
aS'35-49\n'
p265
aS'35-49\n'
p266
aS'25-34\n'
p267
aS'50-64\n'
p268
aS'35-49\n'
p269
aS'25-34\n'
p270
aS'35-49\n'
p271
aS'35-49\n'
p272
aS'25-34\n'
p273
aS'18-24\n'
p274
aS'35-49\n'
p275
aS'50-64\n'
p276
aS'18-24\n'
p277
aS'35-49\n'
p278
aS'25-34\n'
p279
aS'18-24\n'
p280
aS'35-49\n'
p281
aS'18-24\n'
p282
aS'35-49\n'
p283
aS'50-64\n'
p284
aS'65-xx\n'
p285
aS'50-64\n'
p286
aS'25-34\n'
p287
aS'25-34\n'
p288
aS'35-49\n'
p289
aS'35-49\n'
p290
aS'25-34\n'
p291
aS'50-64\n'
p292
aS'35-49\n'
p293
aS'35-49\n'
p294
aS'35-49\n'
p295
aS'35-49\n'
p296
aS'50-64\n'
p297
aS'18-24\n'
p298
aS'50-64\n'
p299
aS'18-24\n'
p300
aS'25-34\n'
p301
aS'35-49\n'
p302
aS'35-49\n'
p303
aS'35-49\n'
p304
aS'35-49\n'
p305
aS'25-34\n'
p306
aS'25-34\n'
p307
aS'25-34\n'
p308
aS'18-24\n'
p309
aS'25-34\n'
p310
aS'35-49\n'
p311
aS'35-49\n'
p312
aS'35-49\n'
p313
aS'35-49\n'
p314
aS'25-34\n'
p315
aS'25-34\n'
p316
aS'35-49\n'
p317
aS'35-49\n'
p318
aS'25-34\n'
p319
aS'25-34\n'
p320
aS'35-49\n'
p321
aS'25-34\n'
p322
aS'50-64\n'
p323
aS'35-49\n'
p324
aS'35-49\n'
p325
aS'35-49\n'
p326
aS'50-64\n'
p327
aS'25-34\n'
p328
aS'25-34\n'
p329
aS'35-49\n'
p330
aS'25-34\n'
p331
aS'35-49\n'
p332
aS'25-34\n'
p333
aS'25-34\n'
p334
aS'25-34\n'
p335
aS'25-34\n'
p336
aS'35-49\n'
p337
aS'35-49\n'
p338
aS'35-49\n'
p339
aS'35-49\n'
p340
aS'18-24\n'
p341
aS'35-49\n'
p342
aS'18-24\n'
p343
aS'50-64\n'
p344
aS'35-49\n'
p345
aS'25-34\n'
p346
aS'35-49\n'
p347
aS'25-34\n'
p348
aS'35-49\n'
p349
aS'50-64\n'
p350
aS'25-34\n'
p351
aS'25-34\n'
p352
aS'35-49\n'
p353
aS'50-64\n'
p354
aS'35-49\n'
p355
aS'35-49\n'
p356
aS'50-64\n'
p357
aS'25-34\n'
p358
aS'25-34\n'
p359
aS'35-49\n'
p360
aS'50-64\n'
p361
aS'35-49\n'
p362
aS'25-34\n'
p363
aS'35-49\n'
p364
aS'25-34\n'
p365
aS'25-34\n'
p366
aS'35-49\n'
p367
aS'25-34\n'
p368
aS'35-49\n'
p369
aS'25-34\n'
p370
aS'25-34\n'
p371
aS'50-64\n'
p372
aS'35-49\n'
p373
aS'25-34\n'
p374
aS'25-34\n'
p375
aS'25-34\n'
p376
aS'35-49\n'
p377
aS'25-34\n'
p378
aS'35-49\n'
p379
aS'25-34\n'
p380
aS'35-49\n'
p381
aS'25-34\n'
p382
aS'25-34\n'
p383
aS'35-49\n'
p384
aS'35-49\n'
p385
aS'25-34\n'
p386
aS'25-34\n'
p387
aS'25-34\n'
p388
aS'50-64\n'
p389
aS'35-49\n'
p390
aS'25-34\n'
p391
aS'25-34\n'
p392
aS'35-49\n'
p393
aS'25-34\n'
p394
aS'35-49\n'
p395
aS'25-34\n'
p396
aS'35-49\n'
p397
aS'65-xx\n'
p398
aS'18-24\n'
p399
aS'18-24\n'
p400
aS'50-64\n'
p401
aS'50-64\n'
p402
aS'25-34\n'
p403
aS'35-49\n'
p404
aS'35-49\n'
p405
aS'35-49\n'
p406
aS'25-34\n'
p407
aS'50-64\n'
p408
aS'35-49\n'
p409
aS'35-49\n'
p410
aS'25-34\n'
p411
aS'35-49\n'
p412
aS'25-34\n'
p413
aS'35-49\n'
p414
aS'25-34\n'
p415
aS'50-64\n'
p416
aS'25-34\n'
p417
aS'25-34\n'
p418
aS'50-64\n'
p419
aS'35-49\n'
p420
aS'25-34\n'
p421
aS'25-34\n'
p422
aS'35-49\n'
p423
aS'50-64\n'
p424
aS'35-49\n'
p425
aS'25-34\n'
p426
aS'50-64\n'
p427
aS'50-64\n'
p428
aS'35-49\n'
p429
aS'25-34\n'
p430
aS'35-49\n'
p431
aS'35-49\n'
p432
aS'25-34\n'
p433
aS'35-49\n'
p434
aS'50-64\n'
p435
aS'35-49\n'
p436
a.