(lp0
S'18-24'
p1
aS'25-34'
p2
aS'18-24'
p3
aS'35-49'
p4
aS'25-34'
p5
aS'18-24'
p6
aS'50-XX'
p7
aS'25-34'
p8
aS'35-49'
p9
aS'50-XX'
p10
aS'25-34'
p11
aS'18-24'
p12
aS'50-XX'
p13
aS'25-34'
p14
aS'25-34'
p15
aS'25-34'
p16
aS'18-24'
p17
aS'18-24'
p18
aS'35-49'
p19
aS'50-XX'
p20
aS'50-XX'
p21
aS'35-49'
p22
aS'25-34'
p23
aS'18-24'
p24
aS'18-24'
p25
aS'25-34'
p26
aS'25-34'
p27
aS'25-34'
p28
aS'25-34'
p29
aS'18-24'
p30
aS'18-24'
p31
aS'25-34'
p32
aS'35-49'
p33
aS'18-24'
p34
aS'25-34'
p35
aS'35-49'
p36
aS'25-34'
p37
aS'35-49'
p38
aS'50-XX'
p39
aS'25-34'
p40
aS'25-34'
p41
aS'25-34'
p42
aS'35-49'
p43
aS'25-34'
p44
aS'35-49'
p45
aS'35-49'
p46
aS'25-34'
p47
aS'50-XX'
p48
aS'25-34'
p49
aS'25-34'
p50
aS'18-24'
p51
aS'50-XX'
p52
aS'18-24'
p53
aS'25-34'
p54
aS'25-34'
p55
aS'35-49'
p56
aS'25-34'
p57
aS'25-34'
p58
aS'35-49'
p59
aS'50-XX'
p60
aS'25-34'
p61
aS'25-34'
p62
aS'25-34'
p63
aS'18-24'
p64
aS'50-XX'
p65
aS'25-34'
p66
aS'35-49'
p67
aS'18-24'
p68
aS'18-24'
p69
aS'18-24'
p70
aS'25-34'
p71
aS'25-34'
p72
aS'35-49'
p73
aS'35-49'
p74
aS'25-34'
p75
aS'35-49'
p76
aS'35-49'
p77
aS'25-34'
p78
aS'25-34'
p79
aS'25-34'
p80
aS'25-34'
p81
aS'25-34'
p82
aS'25-34'
p83
aS'25-34'
p84
aS'18-24'
p85
aS'25-34'
p86
aS'35-49'
p87
aS'18-24'
p88
aS'25-34'
p89
aS'35-49'
p90
aS'35-49'
p91
aS'18-24'
p92
aS'18-24'
p93
aS'25-34'
p94
aS'18-24'
p95
aS'35-49'
p96
aS'25-34'
p97
aS'25-34'
p98
aS'35-49'
p99
aS'25-34'
p100
a.