(lp0
S'M'
p1
ag1
ag1
aS'F'
p2
ag2
ag2
ag2
ag2
ag1
ag2
ag2
ag2
ag1
ag1
ag1
ag2
ag2
ag2
ag2
ag2
ag1
ag2
ag1
ag2
ag1
ag2
ag1
ag1
ag2
ag1
ag2
ag2
ag1
ag1
ag2
ag2
ag1
ag1
ag1
ag1
ag1
ag2
ag1
ag2
ag2
ag2
ag1
ag2
ag2
ag2
ag2
ag2
ag2
ag1
ag2
ag2
ag2
ag1
ag1
ag1
ag2
ag2
ag2
ag1
ag1
ag1
ag2
ag1
ag2
ag1
ag2
ag1
ag1
ag1
ag1
ag2
ag1
ag2
ag2
ag2
ag1
ag2
ag1
ag1
ag1
ag1
ag2
ag2
ag1
ag2
ag1
ag1
ag2
ag1
ag1
ag1
ag2
ag1
ag1
ag1
a.