(lp0
(lp1
(VMD
p2
F0.008408071748878924
tp3
a(S'VB'
p4
F0.10594170403587444
tp5
a(V:
p6
F0.005605381165919282
tp7
a(VVBG
p8
F0.0016816143497757848
tp9
a(S'JJ'
p10
F0.04035874439461883
tp11
a(S'NN'
p12
F0.28475336322869954
tp13
a(VCC
p14
F0.020179372197309416
tp15
a(VPRP$
p16
F0.010089686098654708
tp17
a(V.
p18
F0.14405829596412556
tp19
a(V"
p20
F0.011210762331838564
tp21
a(VPRP
p22
F0.033071748878923765
tp23
a(S'RB'
p24
F0.05100896860986547
tp25
a(VIN
p26
F0.13565022421524664
tp27
a(VWP$
p28
F0.027466367713004484
tp29
a(VZu
p30
F0.0005605381165919282
tp31
a(VDT
p32
F0.08800448430493274
tp33
a(VCD
p34
F0.010650224215246636
tp35
a(V,
p36
F0.018497757847533634
tp37
a(VUH
p38
F0.002802690582959641
tp39
a(S'CAPS'
p40
F9.0
tp41
a(S'ELONGATED'
p42
F16.0
tp43
a(S'!'
p44
I47
tp45
a(S'?'
p46
I9
tp47
a(S'OMG'
p48
I0
tp49
a(S'<3'
p50
I0
tp51
a(S'lol'
p52
I0
tp53
a(S'lmfao'
p54
I0
tp55
a(S'EMOTCOUNT'
p56
I1
tp57
a(S'EMOTSCORE'
p58
I1
tp59
a(S'@COUNT'
p60
I67
tp61
a(S'#COUNT'
p62
I12
tp63
a(S'RT'
p64
I0
tp65
a(S'URL'
p66
I2
tp67
a(S'PIC'
p68
I0
tp69
a(S'TEXTLEN'
p70
F0.009900990099009901
tp71
a(S'WORDLEN'
p72
F7060.0
tp73
a(S'EXTRAV'
p74
F50.17713004484305
tp75
a(S'GFCOUNT'
p76
I1
tp77
a(S'BFCOUNT'
p78
I0
tp79
aa(lp80
(VMD
p81
F0.008690254500310366
tp82
a(VPRP$
p83
F0.0186219739292365
tp84
a(g20
F0.027312228429546864
tp85
a(VVBG
p86
F0.002482929857231533
tp87
a(g24
F0.04220980757293606
tp88
a(g12
F0.3382991930477964
tp89
a(VCC
p90
F0.020484171322160148
tp91
a(V(
p92
F0.0012414649286157666
tp93
a(g4
F0.09248913718187461
tp94
a(g18
F0.074487895716946
tp95
a(V)
p96
F0.0012414649286157666
tp97
a(VCD
p98
F0.01303538175046555
tp99
a(VPRP
p100
F0.0446927374301676
tp101
a(g10
F0.04220980757293606
tp102
a(VIN
p103
F0.12290502793296089
tp104
a(VWP$
p105
F0.016139044072004966
tp106
a(VZu
p107
F0.0012414649286157666
tp108
a(VDT
p109
F0.0893854748603352
tp110
a(g6
F0.011793916821849782
tp111
a(g36
F0.031036623215394164
tp112
a(g40
F4.0
tp113
a(g42
F86.0
tp114
a(g44
I27
tp115
a(g46
I6
tp116
a(g48
I0
tp117
a(g50
I0
tp118
a(g52
I0
tp119
a(g54
I0
tp120
a(g56
I9
tp121
a(g58
I-2
tp122
a(g60
I44
tp123
a(g62
I14
tp124
a(g64
I0
tp125
a(g66
I61
tp126
a(g68
I0
tp127
a(g70
F0.009900990099009901
tp128
a(g72
F7470.0
tp129
a(g74
F50.20546244568591
tp130
a(g76
I1
tp131
a(g78
I0
tp132
aa(lp133
(VMD
p134
F0.004257130693912303
tp135
a(g4
F0.039165602383993185
tp136
a(g20
F0.032354193273733504
tp137
a(g10
F0.01277139208173691
tp138
a(g12
F0.49510429970200087
tp139
a(g96
F0.006811409110259685
tp140
a(g92
F0.006811409110259685
tp141
a(g36
F0.05363984674329502
tp142
a(g18
F0.15410813111962537
tp143
a(VPRP$
p144
F0.0034057045551298426
tp145
a(VCC
p146
F0.0034057045551298426
tp147
a(VCD
p148
F0.007662835249042145
tp149
a(VUH
p150
F0.008939974457215836
tp151
a(g24
F0.023414218816517667
tp152
a(VIN
p153
F0.06726266496381439
tp154
a(VWP$
p155
F0.016602809706257982
tp156
a(VDT
p157
F0.04427415921668795
tp158
a(g6
F0.006811409110259685
tp159
a(VPRP
p160
F0.01319710515112814
tp161
a(g40
F38.0
tp162
a(g42
F51.0
tp163
a(g44
I63
tp164
a(g46
I13
tp165
a(g48
I0
tp166
a(g50
I0
tp167
a(g52
I0
tp168
a(g54
I0
tp169
a(g56
I34
tp170
a(g58
I29
tp171
a(g60
I74
tp172
a(g62
I90
tp173
a(g64
I0
tp174
a(g66
I27
tp175
a(g68
I0
tp176
a(g70
F0.009900990099009901
tp177
a(g72
F9899.0
tp178
a(g74
F50.26734780757769
tp179
a(g76
I0
tp180
a(g78
I0
tp181
aa(lp182
(VMD
p183
F0.00608695652173913
tp184
a(g4
F0.07956521739130434
tp185
a(g6
F0.029130434782608697
tp186
a(VVBG
p187
F0.0034782608695652175
tp188
a(g24
F0.03608695652173913
tp189
a(g12
F0.3452173913043478
tp190
a(VCC
p191
F0.023043478260869565
tp192
a(g92
F0.0008695652173913044
tp193
a(g36
F0.020869565217391306
tp194
a(g18
F0.19043478260869565
tp195
a(g96
F0.0008695652173913044
tp196
a(VCD
p197
F0.00826086956521739
tp198
a(g20
F0.050869565217391305
tp199
a(VPRP
p200
F0.027391304347826086
tp201
a(g10
F0.027391304347826086
tp202
a(VIN
p203
F0.07260869565217391
tp204
a(VWP$
p205
F0.006521739130434782
tp206
a(VZu
p207
F0.002173913043478261
tp208
a(VDT
p209
F0.05608695652173913
tp210
a(VPRP$
p211
F0.01217391304347826
tp212
a(VUH
p213
F0.0008695652173913044
tp214
a(g40
F11.0
tp215
a(g42
F42.0
tp216
a(g44
I73
tp217
a(g46
I69
tp218
a(g48
I0
tp219
a(g50
I0
tp220
a(g52
I0
tp221
a(g54
I0
tp222
a(g56
I2
tp223
a(g58
I1
tp224
a(g60
I199
tp225
a(g62
I23
tp226
a(g64
I2
tp227
a(g66
I19
tp228
a(g68
I0
tp229
a(g70
F0.009615384615384616
tp230
a(g72
F8818.0
tp231
a(g74
F50.17695652173913
tp232
a(g76
I0
tp233
a(g78
I1
tp234
aa(lp235
(VMD
p236
F0.009601181683899557
tp237
a(g4
F0.11964549483013294
tp238
a(g20
F0.0103397341211226
tp239
a(VVBG
p240
F0.008862629246676515
tp241
a(g10
F0.029542097488921712
tp242
a(g12
F0.2555391432791728
tp243
a(VCC
p244
F0.03249630723781388
tp245
a(g92
F0.0022156573116691287
tp246
a(VPRP$
p247
F0.01772525849335303
tp248
a(g18
F0.10044313146233383
tp249
a(g96
F0.0022156573116691287
tp250
a(VCD
p251
F0.0103397341211226
tp252
a(VPRP
p253
F0.056129985228951254
tp254
a(g24
F0.0568685376661743
tp255
a(VIN
p256
F0.1329394387001477
tp257
a(VWP$
p258
F0.0258493353028065
tp259
a(VDT
p260
F0.09896602658788774
tp261
a(g6
F0.004431314623338257
tp262
a(g36
F0.0258493353028065
tp263
a(g40
F6.0
tp264
a(g42
F10.0
tp265
a(g44
I8
tp266
a(g46
I13
tp267
a(g48
I0
tp268
a(g50
I0
tp269
a(g52
I0
tp270
a(g54
I0
tp271
a(g56
I5
tp272
a(g58
I-3
tp273
a(g60
I23
tp274
a(g62
I1
tp275
a(g64
I1
tp276
a(g66
I5
tp277
a(g68
I0
tp278
a(g70
F0.009900990099009901
tp279
a(g72
F5313.0
tp280
a(g74
F50.137740029542094
tp281
a(g76
I7
tp282
a(g78
I0
tp283
aa(lp284
(VMD
p285
F0.008
tp286
a(g4
F0.0928
tp287
a(g20
F0.0496
tp288
a(VVBG
p289
F0.0032
tp290
a(g10
F0.04106666666666667
tp291
a(g12
F0.304
tp292
a(VCC
p293
F0.027733333333333332
tp294
a(g36
F0.0272
tp295
a(g18
F0.11946666666666667
tp296
a(VPRP$
p297
F0.008533333333333334
tp298
a(VCD
p299
F0.0016
tp300
a(VPRP
p301
F0.03573333333333333
tp302
a(g24
F0.037866666666666667
tp303
a(VIN
p304
F0.11306666666666666
tp305
a(VWP$
p306
F0.013866666666666666
tp307
a(VDT
p308
F0.09013333333333333
tp309
a(g6
F0.026133333333333335
tp310
a(g40
F1.0
tp311
a(g42
F56.0
tp312
a(g44
I17
tp313
a(g46
I9
tp314
a(g48
I0
tp315
a(g50
I0
tp316
a(g52
I0
tp317
a(g54
I0
tp318
a(g56
I8
tp319
a(g58
I4
tp320
a(g60
I99
tp321
a(g62
I38
tp322
a(g64
I0
tp323
a(g66
I41
tp324
a(g68
I0
tp325
a(g70
F0.009708737864077669
tp326
a(g72
F8229.0
tp327
a(g74
F50.18933333333333
tp328
a(g76
I1
tp329
a(g78
I1
tp330
aa(lp331
(VMD
p332
F0.00640542577241899
tp333
a(g4
F0.05237377543330821
tp334
a(g20
F0.0651846269781462
tp335
a(g24
F0.02562170308967596
tp336
a(g12
F0.4114544084400904
tp337
a(VCC
p338
F0.012434061793519217
tp339
a(g92
F0.0007535795026375283
tp340
a(g36
F0.014318010550113038
tp341
a(g18
F0.20723436322532027
tp342
a(VPRP$
p343
F0.0026375282592313487
tp344
a(g96
F0.0007535795026375283
tp345
a(VCD
p346
F0.0048982667671439335
tp347
a(VPRP
p348
F0.00904295403165034
tp349
a(g10
F0.023360964581763375
tp350
a(VIN
p351
F0.061416729464958554
tp352
a(VWP$
p353
F0.013564431047475508
tp354
a(VZu
p355
F0.00037678975131876413
tp356
a(VDT
p357
F0.058025621703089676
tp358
a(g6
F0.02260738507912585
tp359
a(VUH
p360
F0.007535795026375283
tp361
a(g40
F26.0
tp362
a(g42
F49.0
tp363
a(g44
I92
tp364
a(g46
I201
tp365
a(g48
I0
tp366
a(g50
I0
tp367
a(g52
I0
tp368
a(g54
I0
tp369
a(g56
I0
tp370
a(g58
I0
tp371
a(g60
I160
tp372
a(g62
I27
tp373
a(g64
I0
tp374
a(g66
I29
tp375
a(g68
I0
tp376
a(g70
F0.00847457627118644
tp377
a(g72
F10518.0
tp378
a(g74
F50.229841748304445
tp379
a(g76
I0
tp380
a(g78
I0
tp381
aa(lp382
(VMD
p383
F0.0026624068157614484
tp384
a(g4
F0.07294994675186368
tp385
a(g20
F0.01650692225772098
tp386
a(VVBG
p387
F0.0026624068157614484
tp388
a(g24
F0.01863684771033014
tp389
a(g12
F0.3876464323748669
tp390
a(VCC
p391
F0.01810436634717785
tp392
a(g6
F0.005857294994675187
tp393
a(g36
F0.02023429179978701
tp394
a(g18
F0.14589989350372737
tp395
a(g96
F0.0010649627263045794
tp396
a(VCD
p397
F0.019701810436634718
tp398
a(VPRP
p399
F0.011714589989350373
tp400
a(g10
F0.043663471778487756
tp401
a(VIN
p402
F0.12566560170394037
tp403
a(VWP$
p404
F0.011714589989350373
tp405
a(g92
F0.0010649627263045794
tp406
a(VDT
p407
F0.08732694355697551
tp408
a(VPRP$
p409
F0.006922257720979766
tp410
a(g40
F17.0
tp411
a(g42
F87.0
tp412
a(g44
I5
tp413
a(g46
I12
tp414
a(g48
I0
tp415
a(g50
I0
tp416
a(g52
I0
tp417
a(g54
I0
tp418
a(g56
I0
tp419
a(g58
I0
tp420
a(g60
I92
tp421
a(g62
I140
tp422
a(g64
I1
tp423
a(g66
I79
tp424
a(g68
I0
tp425
a(g70
F0.00980392156862745
tp426
a(g72
F9358.0
tp427
a(g74
F50.269169329073485
tp428
a(g76
I2
tp429
a(g78
I0
tp430
aa(lp431
(VMD
p432
F0.002457002457002457
tp433
a(g4
F0.07534807534807535
tp434
a(g6
F0.014742014742014743
tp435
a(VVBG
p436
F0.002457002457002457
tp437
a(g10
F0.04095004095004095
tp438
a(g12
F0.4275184275184275
tp439
a(VCC
p440
F0.010647010647010647
tp441
a(g92
F0.000819000819000819
tp442
a(g36
F0.03849303849303849
tp443
a(g18
F0.10237510237510238
tp444
a(VPRP$
p445
F0.009009009009009009
tp446
a(g96
F0.000819000819000819
tp447
a(g20
F0.02293202293202293
tp448
a(VPRP
p449
F0.010647010647010647
tp450
a(g24
F0.0171990171990172
tp451
a(VIN
p452
F0.13022113022113022
tp453
a(VWP$
p454
F0.007371007371007371
tp455
a(VDT
p456
F0.07616707616707617
tp457
a(VCD
p458
F0.009828009828009828
tp459
a(g40
F12.0
tp460
a(g42
F73.0
tp461
a(g44
I10
tp462
a(g46
I6
tp463
a(g48
I0
tp464
a(g50
I0
tp465
a(g52
I0
tp466
a(g54
I0
tp467
a(g56
I0
tp468
a(g58
I0
tp469
a(g60
I57
tp470
a(g62
I17
tp471
a(g64
I0
tp472
a(g66
I68
tp473
a(g68
I0
tp474
a(g70
F0.008264462809917356
tp475
a(g72
F6344.0
tp476
a(g74
F50.28460278460278
tp477
a(g76
I0
tp478
a(g78
I0
tp479
aa(lp480
(VMD
p481
F0.007132667617689016
tp482
a(g4
F0.062054208273894434
tp483
a(g20
F0.07917261055634807
tp484
a(VVBG
p485
F0.0021398002853067048
tp486
a(g10
F0.019971469329529243
tp487
a(g12
F0.3744650499286733
tp488
a(VCC
p489
F0.007845934379457917
tp490
a(g92
F0.0014265335235378032
tp491
a(g36
F0.01783166904422254
tp492
a(g18
F0.20898716119828817
tp493
a(VPRP$
p494
F0.0007132667617689016
tp495
a(g96
F0.0007132667617689016
tp496
a(VCD
p497
F0.010699001426533523
tp498
a(VPRP
p499
F0.009985734664764621
tp500
a(g24
F0.020684736091298145
tp501
a(VIN
p502
F0.07061340941512126
tp503
a(VWP$
p504
F0.012838801711840228
tp505
a(VZu
p506
F0.0014265335235378032
tp507
a(VDT
p508
F0.05777460770328103
tp509
a(g6
F0.029243937232524966
tp510
a(VUH
p511
F0.0042796005706134095
tp512
a(g40
F14.0
tp513
a(g42
F24.0
tp514
a(g44
I44
tp515
a(g46
I115
tp516
a(g48
I0
tp517
a(g50
I0
tp518
a(g52
I0
tp519
a(g54
I0
tp520
a(g56
I1
tp521
a(g58
I1
tp522
a(g60
I73
tp523
a(g62
I30
tp524
a(g64
I0
tp525
a(g66
I17
tp526
a(g68
I0
tp527
a(g70
F0.015873015873015872
tp528
a(g72
F5657.0
tp529
a(g74
F50.211840228245364
tp530
a(g76
I0
tp531
a(g78
I0
tp532
aa(lp533
(VMD
p534
F0.008347245409015025
tp535
a(g4
F0.09571508069003895
tp536
a(g20
F0.011686143572621035
tp537
a(VVBG
p538
F0.004451864218141347
tp539
a(g24
F0.041736227045075125
tp540
a(g12
F0.3672787979966611
tp541
a(VCC
p542
F0.035614913745130775
tp543
a(g92
F0.0011129660545353367
tp544
a(g36
F0.032832498608792435
tp545
a(g18
F0.08903728436282693
tp546
a(VPRP$
p547
F0.012799109627156371
tp548
a(g96
F0.001669449081803005
tp549
a(g6
F0.00667779632721202
tp550
a(VPRP
p551
F0.038953811908736785
tp552
a(g10
F0.022815804117974403
tp553
a(VIN
p554
F0.11352253756260434
tp555
a(VWP$
p556
F0.01669449081803005
tp557
a(VDT
p558
F0.08736783528102393
tp559
a(VCD
p560
F0.011686143572621035
tp561
a(g40
F16.0
tp562
a(g42
F28.0
tp563
a(g44
I11
tp564
a(g46
I31
tp565
a(g48
I0
tp566
a(g50
I1
tp567
a(g52
I0
tp568
a(g54
I0
tp569
a(g56
I15
tp570
a(g58
I7
tp571
a(g60
I36
tp572
a(g62
I11
tp573
a(g64
I4
tp574
a(g66
I18
tp575
a(g68
I0
tp576
a(g70
F0.007936507936507936
tp577
a(g72
F7660.0
tp578
a(g74
F50.20506399554814
tp579
a(g76
I0
tp580
a(g78
I0
tp581
aa(lp582
(VMD
p583
F0.00913937547600914
tp584
a(VPRP$
p585
F0.02513328255902513
tp586
a(g20
F0.006092916984006093
tp587
a(VVBG
p588
F0.0030464584920030465
tp589
a(g24
F0.05178979436405179
tp590
a(g12
F0.261995430312262
tp591
a(VCC
p592
F0.0297029702970297
tp593
a(g6
F0.005331302361005331
tp594
a(g36
F0.01827875095201828
tp595
a(g18
F0.1568926123381569
tp596
a(g4
F0.11348057882711349
tp597
a(VPRP
p598
F0.06778370144706779
tp599
a(g10
F0.02817974105102818
tp600
a(VIN
p601
F0.12490479817212491
tp602
a(VWP$
p603
F0.01904036557501904
tp604
a(VDT
p605
F0.0715917745620716
tp606
a(VCD
p607
F0.007616146230007616
tp608
a(g40
F2.0
tp609
a(g42
F18.0
tp610
a(g44
I67
tp611
a(g46
I22
tp612
a(g48
I0
tp613
a(g50
I0
tp614
a(g52
I0
tp615
a(g54
I0
tp616
a(g56
I25
tp617
a(g58
I4
tp618
a(g60
I61
tp619
a(g62
I1
tp620
a(g64
I0
tp621
a(g66
I4
tp622
a(g68
I0
tp623
a(g70
F0.009900990099009901
tp624
a(g72
F4940.0
tp625
a(g74
F50.125285605483626
tp626
a(g76
I1
tp627
a(g78
I0
tp628
aa(lp629
(VMD
p630
F0.007455268389662028
tp631
a(g4
F0.0889662027833002
tp632
a(g20
F0.016898608349900597
tp633
a(VVBG
p634
F0.0014910536779324055
tp635
a(g24
F0.03926441351888668
tp636
a(g12
F0.3116302186878728
tp637
a(VCC
p638
F0.02286282306163022
tp639
a(g92
F0.009443339960238568
tp640
a(VPRP$
p641
F0.004970178926441352
tp642
a(g18
F0.06461232604373758
tp643
a(g96
F0.009443339960238568
tp644
a(g6
F0.009940357852882704
tp645
a(VPRP
p646
F0.010934393638170975
tp647
a(g10
F0.07107355864811134
tp648
a(VIN
p649
F0.14214711729622267
tp650
a(VWP$
p651
F0.015407554671968192
tp652
a(VDT
p653
F0.10884691848906561
tp654
a(VCD
p655
F0.026341948310139165
tp656
a(g36
F0.03827037773359841
tp657
a(g40
F27.0
tp658
a(g42
F14.0
tp659
a(g44
I5
tp660
a(g46
I7
tp661
a(g48
I0
tp662
a(g50
I0
tp663
a(g52
I0
tp664
a(g54
I0
tp665
a(g56
I0
tp666
a(g58
I0
tp667
a(g60
I31
tp668
a(g62
I0
tp669
a(g64
I0
tp670
a(g66
I12
tp671
a(g68
I0
tp672
a(g70
F0.009900990099009901
tp673
a(g72
F8901.0
tp674
a(g74
F50.24652087475149
tp675
a(g76
I0
tp676
a(g78
I0
tp677
aa(lp678
(VMD
p679
F0.00535475234270415
tp680
a(g4
F0.09170013386880857
tp681
a(g20
F0.03480589022757698
tp682
a(VVBG
p683
F0.0013386880856760374
tp684
a(g10
F0.04551539491298527
tp685
a(g12
F0.3467202141900937
tp686
a(VCC
p687
F0.023427041499330656
tp688
a(g92
F0.0033467202141900937
tp689
a(g36
F0.028781793842034806
tp690
a(g18
F0.07161981258366801
tp691
a(VPRP$
p692
F0.024765729585006693
tp693
a(g96
F0.0033467202141900937
tp694
a(VCD
p695
F0.010040160642570281
tp696
a(VPRP
p697
F0.040160642570281124
tp698
a(g24
F0.03748326639892905
tp699
a(VIN
p700
F0.11378848728246319
tp701
a(VWP$
p702
F0.014725568942436412
tp703
a(VZu
p704
F0.002008032128514056
tp705
a(VDT
p706
F0.08969210174029452
tp707
a(g6
F0.0107095046854083
tp708
a(VUH
p709
F0.0006693440428380187
tp710
a(g40
F9.0
tp711
a(g42
F82.0
tp712
a(g44
I26
tp713
a(g46
I4
tp714
a(g48
I0
tp715
a(g50
I0
tp716
a(g52
I2
tp717
a(g54
I0
tp718
a(g56
I4
tp719
a(g58
I1
tp720
a(g60
I43
tp721
a(g62
I13
tp722
a(g64
I0
tp723
a(g66
I71
tp724
a(g68
I0
tp725
a(g70
F0.009900990099009901
tp726
a(g72
F7141.0
tp727
a(g74
F50.212182061579654
tp728
a(g76
I1
tp729
a(g78
I2
tp730
aa(lp731
(VMD
p732
F0.0037831021437578815
tp733
a(g4
F0.1116015132408575
tp734
a(g6
F0.0006305170239596469
tp735
a(VVBG
p736
F0.005044136191677175
tp737
a(g10
F0.04287515762925599
tp738
a(g12
F0.3083228247162673
tp739
a(VCC
p740
F0.025220680958385876
tp741
a(g92
F0.0031525851197982345
tp742
a(g36
F0.01197982345523329
tp743
a(g18
F0.12421185372005045
tp744
a(VPRP$
p745
F0.009457755359394703
tp746
a(g96
F0.0031525851197982345
tp747
a(g20
F0.004413619167717529
tp748
a(VPRP
p749
F0.035939470365699874
tp750
a(g24
F0.04728877679697352
tp751
a(VIN
p752
F0.1210592686002522
tp753
a(VWP$
p754
F0.01828499369482976
tp755
a(VZu
p756
F0.0012610340479192938
tp757
a(VDT
p758
F0.1116015132408575
tp759
a(VCD
p760
F0.01008827238335435
tp761
a(VUH
p762
F0.0006305170239596469
tp763
a(g40
F6.0
tp764
a(g42
F7.0
tp765
a(g44
I3
tp766
a(g46
I33
tp767
a(g48
I0
tp768
a(g50
I0
tp769
a(g52
I0
tp770
a(g54
I0
tp771
a(g56
I1
tp772
a(g58
I-1
tp773
a(g60
I102
tp774
a(g62
I1
tp775
a(g64
I0
tp776
a(g66
I5
tp777
a(g68
I0
tp778
a(g70
F0.008620689655172414
tp779
a(g72
F6480.0
tp780
a(g74
F50.19167717528373
tp781
a(g76
I1
tp782
a(g78
I0
tp783
aa(lp784
(VMD
p785
F0.012121212121212121
tp786
a(g4
F0.12045454545454545
tp787
a(g20
F0.003787878787878788
tp788
a(VVBG
p789
F0.006060606060606061
tp790
a(g10
F0.03333333333333333
tp791
a(g12
F0.3242424242424242
tp792
a(VCC
p793
F0.025757575757575757
tp794
a(g6
F0.0022727272727272726
tp795
a(g36
F0.016666666666666666
tp796
a(g18
F0.12651515151515152
tp797
a(VCD
p798
F0.009848484848484848
tp799
a(VPRP
p800
F0.02878787878787879
tp801
a(g24
F0.030303030303030304
tp802
a(VIN
p803
F0.11969696969696969
tp804
a(VWP$
p805
F0.006818181818181818
tp806
a(VZu
p807
F0.006818181818181818
tp808
a(VDT
p809
F0.11666666666666667
tp810
a(VPRP$
p811
F0.00909090909090909
tp812
a(VUH
p813
F0.0007575757575757576
tp814
a(g40
F15.0
tp815
a(g42
F12.0
tp816
a(g44
I6
tp817
a(g46
I18
tp818
a(g48
I0
tp819
a(g50
I0
tp820
a(g52
I0
tp821
a(g54
I0
tp822
a(g56
I1
tp823
a(g58
I1
tp824
a(g60
I36
tp825
a(g62
I18
tp826
a(g64
I0
tp827
a(g66
I5
tp828
a(g68
I0
tp829
a(g70
F0.011494252873563218
tp830
a(g72
F5309.0
tp831
a(g74
F50.20378787878788
tp832
a(g76
I1
tp833
a(g78
I0
tp834
aa(lp835
(VMD
p836
F0.012482662968099861
tp837
a(g4
F0.11511789181692095
tp838
a(g20
F0.017337031900138695
tp839
a(VVBG
p840
F0.005547850208044383
tp841
a(g24
F0.05825242718446602
tp842
a(g12
F0.2815533980582524
tp843
a(g96
F0.0006934812760055479
tp844
a(g92
F0.0048543689320388345
tp845
a(VPRP$
p846
F0.01872399445214979
tp847
a(g18
F0.11165048543689321
tp848
a(VCC
p849
F0.030513176144244106
tp850
a(g6
F0.004160887656033287
tp851
a(VPRP
p852
F0.06102635228848821
tp853
a(g10
F0.024965325936199722
tp854
a(VIN
p855
F0.11650485436893204
tp856
a(VWP$
p857
F0.022191400832177532
tp858
a(VDT
p859
F0.08183079056865465
tp860
a(VCD
p861
F0.0062413314840499305
tp862
a(g36
F0.024271844660194174
tp863
a(VUH
p864
F0.0020804438280166435
tp865
a(g40
F10.0
tp866
a(g42
F31.0
tp867
a(g44
I6
tp868
a(g46
I49
tp869
a(g48
I0
tp870
a(g50
I3
tp871
a(g52
I0
tp872
a(g54
I0
tp873
a(g56
I8
tp874
a(g58
I0
tp875
a(g60
I16
tp876
a(g62
I9
tp877
a(g64
I0
tp878
a(g66
I9
tp879
a(g68
I0
tp880
a(g70
F0.009900990099009901
tp881
a(g72
F5885.0
tp882
a(g74
F50.13141470180305
tp883
a(g76
I0
tp884
a(g78
I1
tp885
aa(lp886
(VMD
p887
F0.005165289256198347
tp888
a(g4
F0.08264462809917356
tp889
a(g20
F0.0030991735537190084
tp890
a(g10
F0.04648760330578512
tp891
a(g12
F0.34710743801652894
tp892
a(VCC
p893
F0.02169421487603306
tp894
a(g92
F0.0010330578512396695
tp895
a(VPRP$
p896
F0.02169421487603306
tp897
a(g18
F0.17045454545454544
tp898
a(g96
F0.004132231404958678
tp899
a(VCD
p900
F0.024793388429752067
tp901
a(VPRP
p902
F0.04132231404958678
tp903
a(g24
F0.04132231404958678
tp904
a(VIN
p905
F0.09504132231404959
tp906
a(VWP$
p907
F0.013429752066115703
tp908
a(VDT
p909
F0.06301652892561983
tp910
a(g6
F0.008264462809917356
tp911
a(g36
F0.009297520661157025
tp912
a(g40
F1.0
tp913
a(g42
F10.0
tp914
a(g44
I29
tp915
a(g46
I31
tp916
a(g48
I0
tp917
a(g50
I11
tp918
a(g52
I0
tp919
a(g54
I0
tp920
a(g56
I50
tp921
a(g58
I18
tp922
a(g60
I76
tp923
a(g62
I0
tp924
a(g64
I0
tp925
a(g66
I1
tp926
a(g68
I0
tp927
a(g70
F0.009900990099009901
tp928
a(g72
F3796.0
tp929
a(g74
F50.19318181818182
tp930
a(g76
I1
tp931
a(g78
I0
tp932
aa(lp933
(VMD
p934
F0.010876954452753228
tp935
a(g4
F0.09789259007477906
tp936
a(g20
F0.01495581237253569
tp937
a(VVBG
p938
F0.002719238613188307
tp939
a(g10
F0.03195105370496261
tp940
a(g12
F0.3018354860639021
tp941
a(VCC
p942
F0.02583276682528892
tp943
a(g36
F0.037389530931339225
tp944
a(g18
F0.1114887831407206
tp945
a(VPRP$
p946
F0.007477906186267845
tp947
a(VCD
p948
F0.007477906186267845
tp949
a(VPRP
p950
F0.026512576478585997
tp951
a(g24
F0.04214819850441876
tp952
a(VIN
p953
F0.1441196464989803
tp954
a(VWP$
p955
F0.02583276682528892
tp956
a(VDT
p957
F0.09177430319510536
tp958
a(g6
F0.017675050985723997
tp959
a(VUH
p960
F0.0020394289598912306
tp961
a(g40
F4.0
tp962
a(g42
F32.0
tp963
a(g44
I7
tp964
a(g46
I15
tp965
a(g48
I0
tp966
a(g50
I0
tp967
a(g52
I0
tp968
a(g54
I0
tp969
a(g56
I0
tp970
a(g58
I0
tp971
a(g60
I43
tp972
a(g62
I6
tp973
a(g64
I0
tp974
a(g66
I22
tp975
a(g68
I0
tp976
a(g70
F0.01020408163265306
tp977
a(g72
F6179.0
tp978
a(g74
F50.199184228416044
tp979
a(g76
I1
tp980
a(g78
I0
tp981
aa(lp982
(VMD
p983
F0.008450704225352112
tp984
a(g4
F0.12394366197183099
tp985
a(g20
F0.01619718309859155
tp986
a(VVBG
p987
F0.002112676056338028
tp988
a(g10
F0.030985915492957747
tp989
a(g12
F0.3
tp990
a(VCC
p991
F0.03309859154929577
tp992
a(g92
F0.002112676056338028
tp993
a(g36
F0.023943661971830985
tp994
a(g18
F0.11056338028169015
tp995
a(g96
F0.002112676056338028
tp996
a(VCD
p997
F0.009154929577464789
tp998
a(g6
F0.002112676056338028
tp999
a(VPRP
p1000
F0.05985915492957746
tp1001
a(g24
F0.048591549295774646
tp1002
a(VIN
p1003
F0.12042253521126761
tp1004
a(VWP$
p1005
F0.007042253521126761
tp1006
a(VZu
p1007
F0.0014084507042253522
tp1008
a(VDT
p1009
F0.07887323943661972
tp1010
a(VPRP$
p1011
F0.017605633802816902
tp1012
a(VUH
p1013
F0.0014084507042253522
tp1014
a(g40
F24.0
tp1015
a(g42
F14.0
tp1016
a(g44
I9
tp1017
a(g46
I81
tp1018
a(g48
I0
tp1019
a(g50
I0
tp1020
a(g52
I0
tp1021
a(g54
I0
tp1022
a(g56
I1
tp1023
a(g58
I-1
tp1024
a(g60
I15
tp1025
a(g62
I12
tp1026
a(g64
I0
tp1027
a(g66
I7
tp1028
a(g68
I0
tp1029
a(g70
F0.008403361344537815
tp1030
a(g72
F5582.0
tp1031
a(g74
F50.14718309859155
tp1032
a(g76
I1
tp1033
a(g78
I3
tp1034
aa(lp1035
(VMD
p1036
F0.00772626931567329
tp1037
a(g4
F0.1020971302428256
tp1038
a(g20
F0.009381898454746136
tp1039
a(VVBG
p1040
F0.002207505518763797
tp1041
a(g10
F0.04083885209713024
tp1042
a(g12
F0.35209713024282563
tp1043
a(VCC
p1044
F0.025938189845474614
tp1045
a(g92
F0.008830022075055188
tp1046
a(g36
F0.03145695364238411
tp1047
a(g18
F0.0998896247240618
tp1048
a(VPRP$
p1049
F0.00772626931567329
tp1050
a(g96
F0.008830022075055188
tp1051
a(VCD
p1052
F0.00717439293598234
tp1053
a(VPRP
p1054
F0.018211920529801324
tp1055
a(g24
F0.04304635761589404
tp1056
a(VIN
p1057
F0.11754966887417219
tp1058
a(VWP$
p1059
F0.008278145695364239
tp1060
a(VDT
p1061
F0.08719646799116998
tp1062
a(g6
F0.019867549668874173
tp1063
a(VUH
p1064
F0.0016556291390728477
tp1065
a(g40
F12.0
tp1066
a(g42
F35.0
tp1067
a(g44
I14
tp1068
a(g46
I13
tp1069
a(g48
I0
tp1070
a(g50
I0
tp1071
a(g52
I0
tp1072
a(g54
I0
tp1073
a(g56
I0
tp1074
a(g58
I0
tp1075
a(g60
I92
tp1076
a(g62
I11
tp1077
a(g64
I23
tp1078
a(g66
I25
tp1079
a(g68
I0
tp1080
a(g70
F0.009900990099009901
tp1081
a(g72
F8074.0
tp1082
a(g74
F50.21523178807947
tp1083
a(g76
I0
tp1084
a(g78
I0
tp1085
aa(lp1086
(VMD
p1087
F0.0033140016570008283
tp1088
a(g4
F0.06710853355426678
tp1089
a(g20
F0.016570008285004142
tp1090
a(VVBG
p1091
F0.00579950289975145
tp1092
a(g10
F0.053852526926263466
tp1093
a(g12
F0.44324772162386084
tp1094
a(VCC
p1095
F0.014084507042253521
tp1096
a(g92
F0.0008285004142502071
tp1097
a(g36
F0.02236951118475559
tp1098
a(g18
F0.09859154929577464
tp1099
a(VPRP$
p1100
F0.00579950289975145
tp1101
a(g96
F0.0008285004142502071
tp1102
a(VCD
p1103
F0.008285004142502071
tp1104
a(VPRP
p1105
F0.015741507870753936
tp1106
a(g24
F0.0231980115990058
tp1107
a(VIN
p1108
F0.0927920463960232
tp1109
a(VWP$
p1110
F0.0033140016570008283
tp1111
a(VZu
p1112
F0.0008285004142502071
tp1113
a(VDT
p1114
F0.0936205468102734
tp1115
a(g6
F0.029826014913007456
tp1116
a(g40
F6.0
tp1117
a(g42
F59.0
tp1118
a(g44
I1
tp1119
a(g46
I8
tp1120
a(g48
I0
tp1121
a(g50
I0
tp1122
a(g52
I0
tp1123
a(g54
I0
tp1124
a(g56
I2
tp1125
a(g58
I-2
tp1126
a(g60
I45
tp1127
a(g62
I38
tp1128
a(g64
I3
tp1129
a(g66
I39
tp1130
a(g68
I0
tp1131
a(g70
F0.013333333333333334
tp1132
a(g72
F6271.0
tp1133
a(g74
F50.28583264291632
tp1134
a(g76
I0
tp1135
a(g78
I0
tp1136
aa(lp1137
(VMD
p1138
F0.014756517461878997
tp1139
a(g4
F0.09690113133300542
tp1140
a(g6
F0.006394490900147565
tp1141
a(VVBG
p1142
F0.004918839153959666
tp1143
a(g10
F0.024102311854402363
tp1144
a(g12
F0.3148057058534186
tp1145
a(VCC
p1146
F0.016724053123462864
tp1147
a(g92
F0.000983767830791933
tp1148
a(VPRP$
p1149
F0.01131333005410723
tp1150
a(g18
F0.1751106738809641
tp1151
a(g96
F0.0014756517461878996
tp1152
a(g20
F0.006394490900147565
tp1153
a(VPRP
p1154
F0.03295622233152976
tp1155
a(g24
F0.04328578455484506
tp1156
a(VIN
p1157
F0.1264141662567634
tp1158
a(VWP$
p1159
F0.011805213969503197
tp1160
a(VDT
p1161
F0.07722577471716675
tp1162
a(VCD
p1163
F0.0073782587309394985
tp1164
a(g36
F0.023610427939006393
tp1165
a(VUH
p1166
F0.003443187407771766
tp1167
a(g40
F13.0
tp1168
a(g42
F26.0
tp1169
a(g44
I81
tp1170
a(g46
I25
tp1171
a(g48
I1
tp1172
a(g50
I0
tp1173
a(g52
I0
tp1174
a(g54
I0
tp1175
a(g56
I23
tp1176
a(g58
I18
tp1177
a(g60
I111
tp1178
a(g62
I28
tp1179
a(g64
I7
tp1180
a(g66
I21
tp1181
a(g68
I0
tp1182
a(g70
F0.009708737864077669
tp1183
a(g72
F8818.0
tp1184
a(g74
F50.18052139695032
tp1185
a(g76
I0
tp1186
a(g78
I0
tp1187
aa(lp1188
(VMD
p1189
F0.013763644992880873
tp1190
a(g4
F0.11010915994304699
tp1191
a(g20
F0.015187470336971999
tp1192
a(VVBG
p1193
F0.005220692928334125
tp1194
a(g24
F0.04603701945894637
tp1195
a(g12
F0.280968201233982
tp1196
a(VCC
p1197
F0.030374940673943997
tp1198
a(g92
F0.005695301376364499
tp1199
a(g36
F0.03844328429046037
tp1200
a(g18
F0.140484100616991
tp1201
a(VPRP$
p1202
F0.010915994304698624
tp1203
a(g96
F0.0009492168960607499
tp1204
a(VCD
p1205
F0.006644518272425249
tp1206
a(VPRP
p1207
F0.045087802562885616
tp1208
a(g10
F0.029425723777883245
tp1209
a(VIN
p1210
F0.12007593735168486
tp1211
a(VWP$
p1212
F0.01566207878500237
tp1213
a(VDT
p1214
F0.068343616516374
tp1215
a(g6
F0.014712861888941622
tp1216
a(VUH
p1217
F0.0018984337921214998
tp1218
a(g40
F16.0
tp1219
a(g42
F46.0
tp1220
a(g44
I55
tp1221
a(g46
I35
tp1222
a(g48
I0
tp1223
a(g50
I2
tp1224
a(g52
I0
tp1225
a(g54
I0
tp1226
a(g56
I13
tp1227
a(g58
I12
tp1228
a(g60
I89
tp1229
a(g62
I13
tp1230
a(g64
I0
tp1231
a(g66
I11
tp1232
a(g68
I0
tp1233
a(g70
F0.009523809523809525
tp1234
a(g72
F8301.0
tp1235
a(g74
F50.1452301850973
tp1236
a(g76
I0
tp1237
a(g78
I0
tp1238
aa(lp1239
(VMD
p1240
F0.010121457489878543
tp1241
a(g4
F0.11201079622132254
tp1242
a(g20
F0.029689608636977057
tp1243
a(VVBG
p1244
F0.004723346828609987
tp1245
a(g24
F0.04183535762483131
tp1246
a(g12
F0.286774628879892
tp1247
a(VCC
p1248
F0.019568151147098516
tp1249
a(g6
F0.004048582995951417
tp1250
a(g36
F0.014844804318488529
tp1251
a(g18
F0.12685560053981107
tp1252
a(VCD
p1253
F0.007422402159244264
tp1254
a(VPRP
p1255
F0.03441295546558704
tp1256
a(g10
F0.032388663967611336
tp1257
a(VIN
p1258
F0.12887989203778677
tp1259
a(VWP$
p1260
F0.033738191632928474
tp1261
a(VDT
p1262
F0.10053981106612686
tp1263
a(VPRP$
p1264
F0.011470985155195682
tp1265
a(VUH
p1266
F0.0006747638326585695
tp1267
a(g40
F25.0
tp1268
a(g42
F9.0
tp1269
a(g44
I17
tp1270
a(g46
I11
tp1271
a(g48
I0
tp1272
a(g50
I0
tp1273
a(g52
I1
tp1274
a(g54
I0
tp1275
a(g56
I6
tp1276
a(g58
I3
tp1277
a(g60
I22
tp1278
a(g62
I17
tp1279
a(g64
I0
tp1280
a(g66
I5
tp1281
a(g68
I0
tp1282
a(g70
F0.009900990099009901
tp1283
a(g72
F5924.0
tp1284
a(g74
F50.1774628879892
tp1285
a(g76
I0
tp1286
a(g78
I0
tp1287
aa(lp1288
(VMD
p1289
F0.013564839934888768
tp1290
a(g4
F0.1144872490504612
tp1291
a(g20
F0.019533369506239826
tp1292
a(VVBG
p1293
F0.002170374389582203
tp1294
a(g24
F0.041237113402061855
tp1295
a(g12
F0.33532284319045036
tp1296
a(VCC
p1297
F0.026044492674986434
tp1298
a(g36
F0.020075963103635377
tp1299
a(g18
F0.12533912099837222
tp1300
a(VPRP$
p1301
F0.0048833423765599565
tp1302
a(VCD
p1303
F0.013022246337493217
tp1304
a(VUH
p1305
F0.0016277807921866521
tp1306
a(g10
F0.03472599023331525
tp1307
a(VIN
p1308
F0.10851871947911014
tp1309
a(VWP$
p1310
F0.009224091155724362
tp1311
a(VZu
p1312
F0.0032555615843733042
tp1313
a(VDT
p1314
F0.09224091155724362
tp1315
a(g6
F0.0032555615843733042
tp1316
a(VPRP
p1317
F0.031470428648941944
tp1318
a(g40
F24.0
tp1319
a(g42
F41.0
tp1320
a(g44
I21
tp1321
a(g46
I46
tp1322
a(g48
I0
tp1323
a(g50
I0
tp1324
a(g52
I0
tp1325
a(g54
I0
tp1326
a(g56
I1
tp1327
a(g58
I1
tp1328
a(g60
I52
tp1329
a(g62
I20
tp1330
a(g64
I0
tp1331
a(g66
I34
tp1332
a(g68
I0
tp1333
a(g70
F0.009523809523809525
tp1334
a(g72
F7759.0
tp1335
a(g74
F50.18990775908844
tp1336
a(g76
I1
tp1337
a(g78
I0
tp1338
aa(lp1339
(VMD
p1340
F0.008670520231213872
tp1341
a(g4
F0.09479768786127167
tp1342
a(g6
F0.009248554913294798
tp1343
a(VVBG
p1344
F0.0011560693641618498
tp1345
a(g24
F0.029479768786127167
tp1346
a(g12
F0.37283236994219654
tp1347
a(VCC
p1348
F0.02601156069364162
tp1349
a(g92
F0.0011560693641618498
tp1350
a(g36
F0.017341040462427744
tp1351
a(g18
F0.15375722543352602
tp1352
a(VPRP$
p1353
F0.002890173410404624
tp1354
a(g96
F0.0011560693641618498
tp1355
a(g20
F0.007514450867052023
tp1356
a(VPRP
p1357
F0.023699421965317918
tp1358
a(g10
F0.02716763005780347
tp1359
a(VIN
p1360
F0.11907514450867052
tp1361
a(VWP$
p1362
F0.009826589595375723
tp1363
a(VZu
p1364
F0.0005780346820809249
tp1365
a(VDT
p1366
F0.08034682080924856
tp1367
a(VCD
p1368
F0.013294797687861272
tp1369
a(g40
F9.0
tp1370
a(g42
F66.0
tp1371
a(g44
I76
tp1372
a(g46
I8
tp1373
a(g48
I0
tp1374
a(g50
I0
tp1375
a(g52
I0
tp1376
a(g54
I0
tp1377
a(g56
I49
tp1378
a(g58
I37
tp1379
a(g60
I84
tp1380
a(g62
I24
tp1381
a(g64
I1
tp1382
a(g66
I45
tp1383
a(g68
I0
tp1384
a(g70
F0.009708737864077669
tp1385
a(g72
F7561.0
tp1386
a(g74
F50.22514450867052
tp1387
a(g76
I0
tp1388
a(g78
I0
tp1389
aa(lp1390
(VMD
p1391
F0.006692693809258227
tp1392
a(g4
F0.08198549916341327
tp1393
a(g6
F0.005577244841048522
tp1394
a(g10
F0.018962632459564976
tp1395
a(g12
F0.4517568321249303
tp1396
a(VCC
p1397
F0.012269938650306749
tp1398
a(g92
F0.0011154489682097045
tp1399
a(g36
F0.018404907975460124
tp1400
a(g18
F0.13552704963747908
tp1401
a(VPRP$
p1402
F0.0039040713887339654
tp1403
a(g96
F0.0011154489682097045
tp1404
a(g20
F0.006692693809258227
tp1405
a(VUH
p1406
F0.008923591745677636
tp1407
a(g24
F0.03179029559397657
tp1408
a(VIN
p1409
F0.09313998884551032
tp1410
a(VWP$
p1411
F0.026770775237032907
tp1412
a(VDT
p1413
F0.07083100948131622
tp1414
a(VCD
p1415
F0.009481316229782488
tp1416
a(VPRP
p1417
F0.01505856107083101
tp1418
a(g40
F6.0
tp1419
a(g42
F22.0
tp1420
a(g44
I37
tp1421
a(g46
I28
tp1422
a(g48
I0
tp1423
a(g50
I0
tp1424
a(g52
I0
tp1425
a(g54
I0
tp1426
a(g56
I6
tp1427
a(g58
I-2
tp1428
a(g60
I63
tp1429
a(g62
I17
tp1430
a(g64
I4
tp1431
a(g66
I6
tp1432
a(g68
I0
tp1433
a(g70
F0.009900990099009901
tp1434
a(g72
F7384.0
tp1435
a(g74
F50.24846625766871
tp1436
a(g76
I0
tp1437
a(g78
I0
tp1438
aa(lp1439
(VMD
p1440
F0.006798096532970768
tp1441
a(g4
F0.06594153636981645
tp1442
a(g20
F0.038069340584636305
tp1443
a(VVBG
p1444
F0.003399048266485384
tp1445
a(g10
F0.04214819850441876
tp1446
a(g12
F0.37049626104690686
tp1447
a(VCC
p1448
F0.016315431679129844
tp1449
a(g92
F0.0013596193065941536
tp1450
a(g36
F0.012236573759347382
tp1451
a(g18
F0.18966689326988442
tp1452
a(VPRP$
p1453
F0.008157715839564922
tp1454
a(g96
F0.0013596193065941536
tp1455
a(VCD
p1456
F0.008157715839564922
tp1457
a(VPRP
p1458
F0.020394289598912305
tp1459
a(g24
F0.029231815091774305
tp1460
a(VIN
p1461
F0.08905506458191706
tp1462
a(VWP$
p1463
F0.01699524133242692
tp1464
a(VDT
p1465
F0.06322229775662815
tp1466
a(g6
F0.01699524133242692
tp1467
a(g40
F10.0
tp1468
a(g42
F47.0
tp1469
a(g44
I59
tp1470
a(g46
I6
tp1471
a(g48
I0
tp1472
a(g50
I0
tp1473
a(g52
I0
tp1474
a(g54
I0
tp1475
a(g56
I30
tp1476
a(g58
I20
tp1477
a(g60
I117
tp1478
a(g62
I79
tp1479
a(g64
I2
tp1480
a(g66
I42
tp1481
a(g68
I0
tp1482
a(g70
F0.010752688172043012
tp1483
a(g72
F6970.0
tp1484
a(g74
F50.22297756628144
tp1485
a(g76
I0
tp1486
a(g78
I0
tp1487
aa(lp1488
(VMD
p1489
F0.007575757575757576
tp1490
a(g4
F0.10185185185185185
tp1491
a(g20
F0.03198653198653199
tp1492
a(VVBG
p1493
F0.004208754208754209
tp1494
a(g24
F0.04040404040404041
tp1495
a(g12
F0.3114478114478115
tp1496
a(VCC
p1497
F0.026936026936026935
tp1498
a(g6
F0.003367003367003367
tp1499
a(VPRP$
p1500
F0.015151515151515152
tp1501
a(g18
F0.1531986531986532
tp1502
a(VPRP
p1503
F0.03872053872053872
tp1504
a(g10
F0.03198653198653199
tp1505
a(VIN
p1506
F0.1127946127946128
tp1507
a(VWP$
p1508
F0.01936026936026936
tp1509
a(g92
F0.0008417508417508417
tp1510
a(VDT
p1511
F0.08080808080808081
tp1512
a(VCD
p1513
F0.005892255892255892
tp1514
a(g36
F0.010101010101010102
tp1515
a(VUH
p1516
F0.003367003367003367
tp1517
a(g40
F30.0
tp1518
a(g42
F15.0
tp1519
a(g44
I9
tp1520
a(g46
I17
tp1521
a(g48
I0
tp1522
a(g50
I0
tp1523
a(g52
I1
tp1524
a(g54
I0
tp1525
a(g56
I11
tp1526
a(g58
I5
tp1527
a(g60
I34
tp1528
a(g62
I11
tp1529
a(g64
I0
tp1530
a(g66
I2
tp1531
a(g68
I0
tp1532
a(g70
F0.009900990099009901
tp1533
a(g72
F4804.0
tp1534
a(g74
F50.17424242424242
tp1535
a(g76
I0
tp1536
a(g78
I0
tp1537
aa(lp1538
(VMD
p1539
F0.004721435316336166
tp1540
a(g4
F0.0906515580736544
tp1541
a(g6
F0.00424929178470255
tp1542
a(VVBG
p1543
F0.0033050047214353163
tp1544
a(g10
F0.03588290840415486
tp1545
a(g12
F0.28942398489140697
tp1546
a(VCC
p1547
F0.03541076487252125
tp1548
a(g36
F0.026912181303116147
tp1549
a(g18
F0.18885741265344666
tp1550
a(VCD
p1551
F0.007082152974504249
tp1552
a(g20
F0.0084985835694051
tp1553
a(VPRP
p1554
F0.028328611898016998
tp1555
a(g24
F0.03635505193578848
tp1556
a(VIN
p1557
F0.11992445703493862
tp1558
a(VWP$
p1559
F0.015108593012275733
tp1560
a(VZu
p1561
F0.0009442870632672333
tp1562
a(VDT
p1563
F0.08593012275731822
tp1564
a(VPRP$
p1565
F0.017469310670443813
tp1566
a(VUH
p1567
F0.0009442870632672333
tp1568
a(g40
F28.0
tp1569
a(g42
F26.0
tp1570
a(g44
I64
tp1571
a(g46
I168
tp1572
a(g48
I0
tp1573
a(g50
I0
tp1574
a(g52
I0
tp1575
a(g54
I0
tp1576
a(g56
I6
tp1577
a(g58
I1
tp1578
a(g60
I79
tp1579
a(g62
I68
tp1580
a(g64
I0
tp1581
a(g66
I11
tp1582
a(g68
I0
tp1583
a(g70
F0.009174311926605505
tp1584
a(g72
F8549.0
tp1585
a(g74
F50.18578847969783
tp1586
a(g76
I0
tp1587
a(g78
I2
tp1588
aa(lp1589
(VMD
p1590
F0.005909389363099146
tp1591
a(g4
F0.06500328299409061
tp1592
a(g20
F0.028233749179251477
tp1593
a(VVBG
p1594
F0.001969796454366382
tp1595
a(g24
F0.03217334208798424
tp1596
a(g12
F0.35915955351280365
tp1597
a(VCC
p1598
F0.01969796454366382
tp1599
a(g36
F0.018384766907419567
tp1600
a(g18
F0.1969796454366382
tp1601
a(VPRP$
p1602
F0.009192383453709783
tp1603
a(VCD
p1604
F0.0013131976362442547
tp1605
a(VPRP
p1606
F0.026920551543007223
tp1607
a(g10
F0.03151674326986211
tp1608
a(VIN
p1609
F0.10636900853578464
tp1610
a(VWP$
p1611
F0.011818778726198293
tp1612
a(VZu
p1613
F0.0006565988181221273
tp1614
a(VDT
p1615
F0.06631648063033486
tp1616
a(g6
F0.018384766907419567
tp1617
a(g40
F3.0
tp1618
a(g42
F24.0
tp1619
a(g44
I86
tp1620
a(g46
I9
tp1621
a(g48
I0
tp1622
a(g50
I0
tp1623
a(g52
I0
tp1624
a(g54
I0
tp1625
a(g56
I31
tp1626
a(g58
I19
tp1627
a(g60
I146
tp1628
a(g62
I33
tp1629
a(g64
I1
tp1630
a(g66
I21
tp1631
a(g68
I0
tp1632
a(g70
F0.009708737864077669
tp1633
a(g72
F6560.0
tp1634
a(g74
F50.21864740643467
tp1635
a(g76
I0
tp1636
a(g78
I0
tp1637
aa(lp1638
(VMD
p1639
F0.0067842605156037995
tp1640
a(g4
F0.07394843962008141
tp1641
a(g20
F0.010854816824966078
tp1642
a(VVBG
p1643
F0.0033921302578018998
tp1644
a(g10
F0.051560379918588875
tp1645
a(g12
F0.38670284938941657
tp1646
a(VCC
p1647
F0.017639077340569877
tp1648
a(g92
F0.0027137042062415195
tp1649
a(VPRP$
p1650
F0.008141112618724558
tp1651
a(g18
F0.07530529172320218
tp1652
a(g96
F0.0027137042062415195
tp1653
a(VCD
p1654
F0.011533242876526458
tp1655
a(VPRP
p1656
F0.008819538670284939
tp1657
a(g24
F0.028493894165535955
tp1658
a(VIN
p1659
F0.13568521031207598
tp1660
a(VWP$
p1661
F0.011533242876526458
tp1662
a(VZu
p1663
F0.0006784260515603799
tp1664
a(VDT
p1665
F0.11736770691994572
tp1666
a(g6
F0.018995929443690638
tp1667
a(g36
F0.027137042062415198
tp1668
a(g40
F26.0
tp1669
a(g42
F88.0
tp1670
a(g44
I14
tp1671
a(g46
I7
tp1672
a(g48
I0
tp1673
a(g50
I0
tp1674
a(g52
I0
tp1675
a(g54
I0
tp1676
a(g56
I0
tp1677
a(g58
I0
tp1678
a(g60
I33
tp1679
a(g62
I5
tp1680
a(g64
I0
tp1681
a(g66
I81
tp1682
a(g68
I0
tp1683
a(g70
F0.009345794392523364
tp1684
a(g72
F7857.0
tp1685
a(g74
F50.28833107191316
tp1686
a(g76
I0
tp1687
a(g78
I0
tp1688
aa(lp1689
(VZu
p1690
F0.0006180469715698393
tp1691
a(VMD
p1692
F0.009888751545117428
tp1693
a(VPRP$
p1694
F0.022249690976514216
tp1695
a(g20
F0.016069221260815822
tp1696
a(VVBG
p1697
F0.001854140914709518
tp1698
a(g10
F0.03337453646477132
tp1699
a(g12
F0.29357231149567364
tp1700
a(VCC
p1701
F0.027194066749072928
tp1702
a(g6
F0.003708281829419036
tp1703
a(g4
F0.09888751545117429
tp1704
a(g18
F0.1446229913473424
tp1705
a(g96
F0.0012360939431396785
tp1706
a(VPRP
p1707
F0.04882571075401731
tp1708
a(g24
F0.042027194066749075
tp1709
a(VIN
p1710
F0.12051915945611867
tp1711
a(VWP$
p1712
F0.023485784919653894
tp1713
a(g92
F0.0012360939431396785
tp1714
a(VDT
p1715
F0.08590852904820766
tp1716
a(VCD
p1717
F0.004944375772558714
tp1718
a(g36
F0.0173053152039555
tp1719
a(VUH
p1720
F0.002472187886279357
tp1721
a(g40
F4.0
tp1722
a(g42
F10.0
tp1723
a(g44
I42
tp1724
a(g46
I11
tp1725
a(g48
I0
tp1726
a(g50
I0
tp1727
a(g52
I0
tp1728
a(g54
I0
tp1729
a(g56
I1
tp1730
a(g58
I1
tp1731
a(g60
I58
tp1732
a(g62
I3
tp1733
a(g64
I0
tp1734
a(g66
I3
tp1735
a(g68
I0
tp1736
a(g70
F0.009900990099009901
tp1737
a(g72
F6287.0
tp1738
a(g74
F50.16965389369592
tp1739
a(g76
I0
tp1740
a(g78
I0
tp1741
aa(lp1742
(VMD
p1743
F0.005555555555555556
tp1744
a(g4
F0.08585858585858586
tp1745
a(g20
F0.023232323232323233
tp1746
a(VVBG
p1747
F0.00404040404040404
tp1748
a(g10
F0.03434343434343434
tp1749
a(g12
F0.28585858585858587
tp1750
a(VCC
p1751
F0.02070707070707071
tp1752
a(g92
F0.010101010101010102
tp1753
a(g36
F0.020202020202020204
tp1754
a(VCD
p1755
F0.011111111111111112
tp1756
a(VPRP$
p1757
F0.007575757575757576
tp1758
a(g96
F0.010101010101010102
tp1759
a(g6
F0.005050505050505051
tp1760
a(VPRP
p1761
F0.04040404040404041
tp1762
a(g24
F0.03686868686868687
tp1763
a(VIN
p1764
F0.12828282828282828
tp1765
a(VWP$
p1766
F0.015151515151515152
tp1767
a(VZu
p1768
F0.00101010101010101
tp1769
a(VDT
p1770
F0.08787878787878788
tp1771
a(g18
F0.16565656565656567
tp1772
a(VUH
p1773
F0.00101010101010101
tp1774
a(g40
F28.0
tp1775
a(g42
F39.0
tp1776
a(g44
I22
tp1777
a(g46
I134
tp1778
a(g48
I0
tp1779
a(g50
I1
tp1780
a(g52
I0
tp1781
a(g54
I0
tp1782
a(g56
I8
tp1783
a(g58
I6
tp1784
a(g60
I45
tp1785
a(g62
I40
tp1786
a(g64
I0
tp1787
a(g66
I26
tp1788
a(g68
I0
tp1789
a(g70
F0.006024096385542169
tp1790
a(g72
F8015.0
tp1791
a(g74
F50.18409090909091
tp1792
a(g76
I1
tp1793
a(g78
I0
tp1794
aa(lp1795
(VMD
p1796
F0.004576659038901602
tp1797
a(g4
F0.08100686498855836
tp1798
a(g20
F0.0471395881006865
tp1799
a(VVBG
p1800
F0.002288329519450801
tp1801
a(g10
F0.02654462242562929
tp1802
a(g12
F0.3093821510297483
tp1803
a(VCC
p1804
F0.017391304347826087
tp1805
a(g92
F0.0009153318077803204
tp1806
a(g36
F0.02425629290617849
tp1807
a(g18
F0.20091533180778032
tp1808
a(VPRP$
p1809
F0.010526315789473684
tp1810
a(g96
F0.0004576659038901602
tp1811
a(VCD
p1812
F0.011441647597254004
tp1813
a(VPRP
p1814
F0.037070938215102975
tp1815
a(g24
F0.035697940503432495
tp1816
a(VIN
p1817
F0.09061784897025171
tp1818
a(VWP$
p1819
F0.013272311212814645
tp1820
a(VDT
p1821
F0.058581235697940506
tp1822
a(g6
F0.02700228832951945
tp1823
a(VUH
p1824
F0.0009153318077803204
tp1825
a(g40
F13.0
tp1826
a(g42
F40.0
tp1827
a(g44
I78
tp1828
a(g46
I102
tp1829
a(g48
I0
tp1830
a(g50
I0
tp1831
a(g52
I0
tp1832
a(g54
I0
tp1833
a(g56
I0
tp1834
a(g58
I0
tp1835
a(g60
I160
tp1836
a(g62
I30
tp1837
a(g64
I3
tp1838
a(g66
I23
tp1839
a(g68
I0
tp1840
a(g70
F0.009615384615384616
tp1841
a(g72
F8424.0
tp1842
a(g74
F50.16407322654462
tp1843
a(g76
I1
tp1844
a(g78
I0
tp1845
aa(lp1846
(VMD
p1847
F0.008142116950407105
tp1848
a(g4
F0.1073279052553664
tp1849
a(g6
F0.0029607698001480384
tp1850
a(VVBG
p1851
F0.0044411547002220575
tp1852
a(g24
F0.03774981495188749
tp1853
a(g12
F0.3145817912657291
tp1854
a(VCC
p1855
F0.027387120651369355
tp1856
a(g92
F0.0044411547002220575
tp1857
a(VPRP$
p1858
F0.005921539600296077
tp1859
a(g18
F0.1154700222057735
tp1860
a(g96
F0.0044411547002220575
tp1861
a(g20
F0.0044411547002220575
tp1862
a(VPRP
p1863
F0.03774981495188749
tp1864
a(g10
F0.053293856402664694
tp1865
a(VIN
p1866
F0.12435233160621761
tp1867
a(VWP$
p1868
F0.018504811250925242
tp1869
a(VDT
p1870
F0.1080680977054034
tp1871
a(VCD
p1872
F0.009622501850481125
tp1873
a(g36
F0.011102886750555145
tp1874
a(g40
F6.0
tp1875
a(g42
F12.0
tp1876
a(g44
I2
tp1877
a(g46
I36
tp1878
a(g48
I0
tp1879
a(g50
I0
tp1880
a(g52
I0
tp1881
a(g54
I0
tp1882
a(g56
I2
tp1883
a(g58
I0
tp1884
a(g60
I77
tp1885
a(g62
I5
tp1886
a(g64
I1
tp1887
a(g66
I6
tp1888
a(g68
I0
tp1889
a(g70
F0.008695652173913044
tp1890
a(g72
F5664.0
tp1891
a(g74
F50.206513693560325
tp1892
a(g76
I1
tp1893
a(g78
I0
tp1894
aa(lp1895
(VMD
p1896
F0.012875536480686695
tp1897
a(g4
F0.10055180870631514
tp1898
a(g20
F0.017167381974248927
tp1899
a(VVBG
p1900
F0.004291845493562232
tp1901
a(g10
F0.041079092581238506
tp1902
a(g12
F0.35683629675045986
tp1903
a(VCC
p1904
F0.023298589822194973
tp1905
a(g92
F0.0006131207847946045
tp1906
a(VPRP$
p1907
F0.007357449417535254
tp1908
a(g18
F0.08031882280809319
tp1909
a(g96
F0.0006131207847946045
tp1910
a(VCD
p1911
F0.007357449417535254
tp1912
a(VPRP
p1913
F0.02575107296137339
tp1914
a(g24
F0.04475781729000613
tp1915
a(VIN
p1916
F0.12262415695892091
tp1917
a(VWP$
p1918
F0.014101778050275904
tp1919
a(VZu
p1920
F0.0006131207847946045
tp1921
a(VDT
p1922
F0.09809932556713673
tp1923
a(g6
F0.008583690987124463
tp1924
a(g36
F0.03249540159411404
tp1925
a(VUH
p1926
F0.0006131207847946045
tp1927
a(g40
F30.0
tp1928
a(g42
F68.0
tp1929
a(g44
I17
tp1930
a(g46
I18
tp1931
a(g48
I0
tp1932
a(g50
I0
tp1933
a(g52
I2
tp1934
a(g54
I0
tp1935
a(g56
I22
tp1936
a(g58
I18
tp1937
a(g60
I45
tp1938
a(g62
I11
tp1939
a(g64
I3
tp1940
a(g66
I59
tp1941
a(g68
I0
tp1942
a(g70
F0.009900990099009901
tp1943
a(g72
F7753.0
tp1944
a(g74
F50.22133660331085
tp1945
a(g76
I0
tp1946
a(g78
I0
tp1947
aa(lp1948
(VMD
p1949
F0.013024602026049204
tp1950
a(g4
F0.08297153883260974
tp1951
a(g20
F0.03087313072841293
tp1952
a(VVBG
p1953
F0.004341534008683068
tp1954
a(g10
F0.03280270139893873
tp1955
a(g12
F0.29570670525808007
tp1956
a(VCC
p1957
F0.019778099372889532
tp1958
a(g92
F0.015918958031837915
tp1959
a(g36
F0.056439942112879886
tp1960
a(g18
F0.13072841292812348
tp1961
a(VPRP$
p1962
F0.006271104679208876
tp1963
a(g96
F0.017366136034732273
tp1964
a(VCD
p1965
F0.01447178002894356
tp1966
a(VPRP
p1967
F0.027978774722624215
tp1968
a(g24
F0.05016883743367101
tp1969
a(VIN
p1970
F0.09261939218523878
tp1971
a(VWP$
p1972
F0.013506994693680656
tp1973
a(VDT
p1974
F0.07332368547998071
tp1975
a(g6
F0.02170767004341534
tp1976
a(g40
F29.0
tp1977
a(g42
F51.0
tp1978
a(g44
I55
tp1979
a(g46
I7
tp1980
a(g48
I0
tp1981
a(g50
I0
tp1982
a(g52
I0
tp1983
a(g54
I0
tp1984
a(g56
I3
tp1985
a(g58
I3
tp1986
a(g60
I104
tp1987
a(g62
I30
tp1988
a(g64
I0
tp1989
a(g66
I43
tp1990
a(g68
I0
tp1991
a(g70
F0.009900990099009901
tp1992
a(g72
F8634.0
tp1993
a(g74
F50.16449589966233
tp1994
a(g76
I0
tp1995
a(g78
I0
tp1996
aa(lp1997
(VMD
p1998
F0.002849002849002849
tp1999
a(g4
F0.07834757834757834
tp2000
a(g20
F0.018518518518518517
tp2001
a(VVBG
p2002
F0.002849002849002849
tp2003
a(g10
F0.02564102564102564
tp2004
a(g12
F0.5712250712250713
tp2005
a(VCC
p2006
F0.029914529914529916
tp2007
a(g92
F0.008547008547008548
tp2008
a(g36
F0.008547008547008548
tp2009
a(g18
F0.08974358974358974
tp2010
a(g96
F0.008547008547008548
tp2011
a(VCD
p2012
F0.01566951566951567
tp2013
a(VUH
p2014
F0.009971509971509971
tp2015
a(g24
F0.022792022792022793
tp2016
a(VIN
p2017
F0.06837606837606838
tp2018
a(VWP$
p2019
F0.014245014245014245
tp2020
a(VZu
p2021
F0.0014245014245014246
tp2022
a(VDT
p2023
F0.009971509971509971
tp2024
a(g6
F0.007122507122507123
tp2025
a(VPRP
p2026
F0.005698005698005698
tp2027
a(g40
F18.0
tp2028
a(g42
F30.0
tp2029
a(g44
I1
tp2030
a(g46
I24
tp2031
a(g48
I0
tp2032
a(g50
I0
tp2033
a(g52
I0
tp2034
a(g54
I0
tp2035
a(g56
I1
tp2036
a(g58
I-1
tp2037
a(g60
I16
tp2038
a(g62
I1
tp2039
a(g64
I0
tp2040
a(g66
I16
tp2041
a(g68
I0
tp2042
a(g70
F0.010752688172043012
tp2043
a(g72
F3333.0
tp2044
a(g74
F50.27777777777778
tp2045
a(g76
I0
tp2046
a(g78
I0
tp2047
aa(lp2048
(VMD
p2049
F0.007082152974504249
tp2050
a(g4
F0.11331444759206799
tp2051
a(g6
F0.002124645892351275
tp2052
a(VVBG
p2053
F0.004957507082152974
tp2054
a(g10
F0.0226628895184136
tp2055
a(g12
F0.31373937677053826
tp2056
a(VCC
p2057
F0.02762039660056657
tp2058
a(g92
F0.002124645892351275
tp2059
a(VPRP$
p2060
F0.0113314447592068
tp2061
a(g18
F0.16643059490084985
tp2062
a(g96
F0.002124645892351275
tp2063
a(g20
F0.00141643059490085
tp2064
a(VPRP
p2065
F0.037535410764872525
tp2066
a(g24
F0.02903682719546742
tp2067
a(VIN
p2068
F0.11968838526912182
tp2069
a(VWP$
p2070
F0.018413597733711047
tp2071
a(VZu
p2072
F0.000708215297450425
tp2073
a(VDT
p2074
F0.08498583569405099
tp2075
a(VCD
p2076
F0.010623229461756374
tp2077
a(g36
F0.021954674220963172
tp2078
a(VUH
p2079
F0.002124645892351275
tp2080
a(g40
F10.0
tp2081
a(g42
F34.0
tp2082
a(g44
I51
tp2083
a(g46
I24
tp2084
a(g48
I0
tp2085
a(g50
I0
tp2086
a(g52
I0
tp2087
a(g54
I0
tp2088
a(g56
I3
tp2089
a(g58
I3
tp2090
a(g60
I74
tp2091
a(g62
I19
tp2092
a(g64
I3
tp2093
a(g66
I23
tp2094
a(g68
I0
tp2095
a(g70
F0.009345794392523364
tp2096
a(g72
F6039.0
tp2097
a(g74
F50.17705382436261
tp2098
a(g76
I2
tp2099
a(g78
I1
tp2100
aa(lp2101
(VMD
p2102
F0.008169934640522876
tp2103
a(g4
F0.10784313725490197
tp2104
a(g20
F0.016339869281045753
tp2105
a(VVBG
p2106
F0.004901960784313725
tp2107
a(g10
F0.04003267973856209
tp2108
a(g12
F0.29330065359477125
tp2109
a(VCC
p2110
F0.02369281045751634
tp2111
a(g92
F0.0008169934640522876
tp2112
a(g36
F0.024509803921568627
tp2113
a(g18
F0.12336601307189543
tp2114
a(VPRP$
p2115
F0.0196078431372549
tp2116
a(g96
F0.0008169934640522876
tp2117
a(g6
F0.0024509803921568627
tp2118
a(VPRP
p2119
F0.04411764705882353
tp2120
a(g24
F0.06535947712418301
tp2121
a(VIN
p2122
F0.1053921568627451
tp2123
a(VWP$
p2124
F0.01715686274509804
tp2125
a(VZu
p2126
F0.004901960784313725
tp2127
a(VDT
p2128
F0.07679738562091504
tp2129
a(VCD
p2130
F0.018790849673202614
tp2131
a(VUH
p2132
F0.0016339869281045752
tp2133
a(g40
F1.0
tp2134
a(g42
F25.0
tp2135
a(g44
I22
tp2136
a(g46
I10
tp2137
a(g48
I0
tp2138
a(g50
I0
tp2139
a(g52
I0
tp2140
a(g54
I0
tp2141
a(g56
I10
tp2142
a(g58
I0
tp2143
a(g60
I39
tp2144
a(g62
I4
tp2145
a(g64
I0
tp2146
a(g66
I10
tp2147
a(g68
I0
tp2148
a(g70
F0.008695652173913044
tp2149
a(g72
F4893.0
tp2150
a(g74
F50.145833333333336
tp2151
a(g76
I2
tp2152
a(g78
I2
tp2153
aa(lp2154
(VMD
p2155
F0.012149532710280374
tp2156
a(g4
F0.1
tp2157
a(g20
F0.009345794392523364
tp2158
a(VVBG
p2159
F0.007009345794392523
tp2160
a(g10
F0.029906542056074768
tp2161
a(g12
F0.3088785046728972
tp2162
a(g96
F0.011214953271028037
tp2163
a(g92
F0.004205607476635514
tp2164
a(g36
F0.02149532710280374
tp2165
a(g18
F0.09065420560747664
tp2166
a(VPRP$
p2167
F0.013551401869158878
tp2168
a(VCC
p2169
F0.020560747663551402
tp2170
a(VCD
p2171
F0.012616822429906542
tp2172
a(VPRP
p2173
F0.04392523364485981
tp2174
a(g24
F0.043457943925233646
tp2175
a(VIN
p2176
F0.13925233644859814
tp2177
a(VWP$
p2178
F0.025233644859813085
tp2179
a(VDT
p2180
F0.09018691588785047
tp2181
a(g6
F0.01542056074766355
tp2182
a(VUH
p2183
F0.0009345794392523365
tp2184
a(g40
F13.0
tp2185
a(g42
F30.0
tp2186
a(g44
I67
tp2187
a(g46
I22
tp2188
a(g48
I0
tp2189
a(g50
I0
tp2190
a(g52
I0
tp2191
a(g54
I0
tp2192
a(g56
I38
tp2193
a(g58
I33
tp2194
a(g60
I67
tp2195
a(g62
I2
tp2196
a(g64
I27
tp2197
a(g66
I20
tp2198
a(g68
I0
tp2199
a(g70
F0.00980392156862745
tp2200
a(g72
F8826.0
tp2201
a(g74
F50.18644859813084
tp2202
a(g76
I2
tp2203
a(g78
I0
tp2204
aa(lp2205
(VMD
p2206
F0.009573958831977022
tp2207
a(g4
F0.07371948300622308
tp2208
a(g20
F0.006701771182383916
tp2209
a(VVBG
p2210
F0.003829583532790809
tp2211
a(g24
F0.036381043561512685
tp2212
a(g12
F0.2838678793681187
tp2213
a(VCC
p2214
F0.03350885591191958
tp2215
a(g92
F0.0009573958831977022
tp2216
a(VPRP$
p2217
F0.008137865007180469
tp2218
a(g18
F0.25418860698898993
tp2219
a(g96
F0.0009573958831977022
tp2220
a(VCD
p2221
F0.00861656294877932
tp2222
a(VPRP
p2223
F0.03685974150311154
tp2224
a(g10
F0.03303015797032073
tp2225
a(VIN
p2226
F0.09669698420296793
tp2227
a(VWP$
p2228
F0.02202010531354715
tp2229
a(VDT
p2230
F0.07611297271421733
tp2231
a(g6
F0.004786979415988511
tp2232
a(g36
F0.009095260890378171
tp2233
a(VUH
p2234
F0.0009573958831977022
tp2235
a(g40
F29.0
tp2236
a(g42
F65.0
tp2237
a(g44
I64
tp2238
a(g46
I298
tp2239
a(g48
I0
tp2240
a(g50
I1
tp2241
a(g52
I0
tp2242
a(g54
I0
tp2243
a(g56
I8
tp2244
a(g58
I8
tp2245
a(g60
I32
tp2246
a(g62
I32
tp2247
a(g64
I0
tp2248
a(g66
I23
tp2249
a(g68
I0
tp2250
a(g70
F0.006993006993006993
tp2251
a(g72
F7683.0
tp2252
a(g74
F50.16898037338439
tp2253
a(g76
I3
tp2254
a(g78
I0
tp2255
aa(lp2256
(VMD
p2257
F0.004518072289156626
tp2258
a(g4
F0.08358433734939759
tp2259
a(g6
F0.016566265060240965
tp2260
a(VVBG
p2261
F0.0007530120481927711
tp2262
a(g10
F0.02786144578313253
tp2263
a(g12
F0.33207831325301207
tp2264
a(VCC
p2265
F0.024849397590361446
tp2266
a(g92
F0.0007530120481927711
tp2267
a(g36
F0.030873493975903613
tp2268
a(g18
F0.16566265060240964
tp2269
a(g96
F0.0007530120481927711
tp2270
a(VCD
p2271
F0.007530120481927711
tp2272
a(g20
F0.022590361445783132
tp2273
a(VPRP
p2274
F0.0286144578313253
tp2275
a(g24
F0.04819277108433735
tp2276
a(VIN
p2277
F0.10542168674698796
tp2278
a(VWP$
p2279
F0.009036144578313253
tp2280
a(VDT
p2281
F0.0783132530120482
tp2282
a(VPRP$
p2283
F0.012048192771084338
tp2284
a(g40
F10.0
tp2285
a(g42
F17.0
tp2286
a(g44
I15
tp2287
a(g46
I36
tp2288
a(g48
I0
tp2289
a(g50
I0
tp2290
a(g52
I0
tp2291
a(g54
I0
tp2292
a(g56
I0
tp2293
a(g58
I0
tp2294
a(g60
I115
tp2295
a(g62
I11
tp2296
a(g64
I11
tp2297
a(g66
I10
tp2298
a(g68
I0
tp2299
a(g70
F0.00980392156862745
tp2300
a(g72
F5535.0
tp2301
a(g74
F50.191265060240966
tp2302
a(g76
I3
tp2303
a(g78
I0
tp2304
aa(lp2305
(VMD
p2306
F0.006184291898577613
tp2307
a(g4
F0.13358070500927643
tp2308
a(g20
F0.016079158936301793
tp2309
a(VVBG
p2310
F0.0024737167594310453
tp2311
a(g10
F0.05318491032776747
tp2312
a(g12
F0.2918985776128633
tp2313
a(VCC
p2314
F0.027829313543599257
tp2315
a(g92
F0.0006184291898577613
tp2316
a(g36
F0.02350030921459493
tp2317
a(g18
F0.10018552875695733
tp2318
a(VPRP$
p2319
F0.0191713048855906
tp2320
a(g96
F0.0006184291898577613
tp2321
a(VCD
p2322
F0.004947433518862091
tp2323
a(VPRP
p2324
F0.030303030303030304
tp2325
a(g24
F0.04885590599876314
tp2326
a(VIN
p2327
F0.11131725417439703
tp2328
a(VWP$
p2329
F0.01855287569573284
tp2330
a(VDT
p2331
F0.10327767470624613
tp2332
a(g6
F0.0074211502782931356
tp2333
a(g40
F2.0
tp2334
a(g42
F24.0
tp2335
a(g44
I54
tp2336
a(g46
I24
tp2337
a(g48
I0
tp2338
a(g50
I0
tp2339
a(g52
I0
tp2340
a(g54
I0
tp2341
a(g56
I3
tp2342
a(g58
I1
tp2343
a(g60
I37
tp2344
a(g62
I7
tp2345
a(g64
I0
tp2346
a(g66
I20
tp2347
a(g68
I0
tp2348
a(g70
F0.00980392156862745
tp2349
a(g72
F7286.0
tp2350
a(g74
F50.172232529375385
tp2351
a(g76
I1
tp2352
a(g78
I0
tp2353
aa(lp2354
(VMD
p2355
F0.007151370679380214
tp2356
a(VPRP$
p2357
F0.004171632896305125
tp2358
a(g20
F0.013110846245530394
tp2359
a(VVBG
p2360
F0.005363528009535161
tp2361
a(g10
F0.032777115613825986
tp2362
a(g12
F0.30274135876042907
tp2363
a(VCC
p2364
F0.02205005959475566
tp2365
a(g92
F0.003575685339690107
tp2366
a(g36
F0.029201430274135878
tp2367
a(g18
F0.18295589988081049
tp2368
a(g4
F0.09833134684147796
tp2369
a(g96
F0.0029797377830750892
tp2370
a(g6
F0.0005959475566150178
tp2371
a(VPRP
p2372
F0.04410011918951132
tp2373
a(g24
F0.043504171632896306
tp2374
a(VIN
p2375
F0.0899880810488677
tp2376
a(VWP$
p2377
F0.013110846245530394
tp2378
a(VDT
p2379
F0.08879618593563766
tp2380
a(VCD
p2381
F0.013706793802145411
tp2382
a(VUH
p2383
F0.0017878426698450535
tp2384
a(g40
F8.0
tp2385
a(g42
F12.0
tp2386
a(g44
I32
tp2387
a(g46
I19
tp2388
a(g48
I0
tp2389
a(g50
I0
tp2390
a(g52
I0
tp2391
a(g54
I0
tp2392
a(g56
I47
tp2393
a(g58
I22
tp2394
a(g60
I131
tp2395
a(g62
I25
tp2396
a(g64
I0
tp2397
a(g66
I3
tp2398
a(g68
I0
tp2399
a(g70
F0.009900990099009901
tp2400
a(g72
F6342.0
tp2401
a(g74
F50.160607866507746
tp2402
a(g76
I0
tp2403
a(g78
I0
tp2404
aa(lp2405
(VMD
p2406
F0.006314127861089187
tp2407
a(VPRP$
p2408
F0.0015785319652722968
tp2409
a(g20
F0.07379636937647988
tp2410
a(VVBG
p2411
F0.0003946329913180742
tp2412
a(g24
F0.024861878453038673
tp2413
a(g12
F0.43370165745856354
tp2414
a(VCC
p2415
F0.009076558800315706
tp2416
a(g92
F0.0023677979479084454
tp2417
a(g4
F0.04814522494080505
tp2418
a(g18
F0.1925808997632202
tp2419
a(g96
F0.001973164956590371
tp2420
a(VCD
p2421
F0.004735595895816891
tp2422
a(VPRP
p2423
F0.006314127861089187
tp2424
a(g10
F0.019337016574585635
tp2425
a(VIN
p2426
F0.06669297553275454
tp2427
a(VWP$
p2428
F0.010260457774269928
tp2429
a(VDT
p2430
F0.052486187845303865
tp2431
a(g6
F0.025651144435674823
tp2432
a(g36
F0.01617995264404104
tp2433
a(VUH
p2434
F0.003551696921862668
tp2435
a(g40
F17.0
tp2436
a(g42
F58.0
tp2437
a(g44
I68
tp2438
a(g46
I184
tp2439
a(g48
I0
tp2440
a(g50
I0
tp2441
a(g52
I0
tp2442
a(g54
I0
tp2443
a(g56
I0
tp2444
a(g58
I0
tp2445
a(g60
I117
tp2446
a(g62
I66
tp2447
a(g64
I0
tp2448
a(g66
I44
tp2449
a(g68
I0
tp2450
a(g70
F0.007936507936507936
tp2451
a(g72
F10701.0
tp2452
a(g74
F50.244475138121544
tp2453
a(g76
I0
tp2454
a(g78
I0
tp2455
aa(lp2456
(VMD
p2457
F0.007128969539857421
tp2458
a(g4
F0.11600777705767984
tp2459
a(g20
F0.016202203499675955
tp2460
a(VVBG
p2461
F0.0038885288399222295
tp2462
a(g24
F0.04082955281918341
tp2463
a(g12
F0.3039533376539209
tp2464
a(VCC
p2465
F0.04147764095917045
tp2466
a(g92
F0.0032404406999351912
tp2467
a(g36
F0.0304601425793908
tp2468
a(g18
F0.1049902786779002
tp2469
a(VPRP$
p2470
F0.017498379779650033
tp2471
a(g96
F0.0038885288399222295
tp2472
a(VCD
p2473
F0.010369410239792612
tp2474
a(VPRP
p2475
F0.03888528839922229
tp2476
a(g10
F0.03694102397926118
tp2477
a(VIN
p2478
F0.10758263123784835
tp2479
a(VWP$
p2480
F0.01814646791963707
tp2481
a(VZu
p2482
F0.0032404406999351912
tp2483
a(VDT
p2484
F0.08619572261827609
tp2485
a(g6
F0.007777057679844459
tp2486
a(VUH
p2487
F0.0012961762799740765
tp2488
a(g40
F7.0
tp2489
a(g42
F25.0
tp2490
a(g44
I3
tp2491
a(g46
I20
tp2492
a(g48
I0
tp2493
a(g50
I0
tp2494
a(g52
I0
tp2495
a(g54
I0
tp2496
a(g56
I7
tp2497
a(g58
I-3
tp2498
a(g60
I35
tp2499
a(g62
I0
tp2500
a(g64
I2
tp2501
a(g66
I14
tp2502
a(g68
I0
tp2503
a(g70
F0.008547008547008548
tp2504
a(g72
F6169.0
tp2505
a(g74
F50.16688269604666
tp2506
a(g76
I2
tp2507
a(g78
I2
tp2508
aa(lp2509
(VMD
p2510
F0.007131940906775344
tp2511
a(g4
F0.09526235354049924
tp2512
a(g20
F0.022414671421293938
tp2513
a(VVBG
p2514
F0.0025471217524197657
tp2515
a(g10
F0.018339276617422313
tp2516
a(g12
F0.2837493632195619
tp2517
a(VCC
p2518
F0.018848700967906265
tp2519
a(g92
F0.012226184411614875
tp2520
a(g36
F0.021905247070809986
tp2521
a(g18
F0.20173204279164544
tp2522
a(VPRP$
p2523
F0.010697911360163017
tp2524
a(g96
F0.011716760061130923
tp2525
a(VCD
p2526
F0.006113092205807438
tp2527
a(VPRP
p2528
F0.03922567498726439
tp2529
a(g24
F0.036678553234844626
tp2530
a(VIN
p2531
F0.11003565970453388
tp2532
a(VWP$
p2533
F0.011207335710646969
tp2534
a(VDT
p2535
F0.08048904737646459
tp2536
a(g6
F0.007131940906775344
tp2537
a(VUH
p2538
F0.0025471217524197657
tp2539
a(g40
F31.0
tp2540
a(g42
F35.0
tp2541
a(g44
I29
tp2542
a(g46
I191
tp2543
a(g48
I2
tp2544
a(g50
I0
tp2545
a(g52
I0
tp2546
a(g54
I0
tp2547
a(g56
I9
tp2548
a(g58
I0
tp2549
a(g60
I43
tp2550
a(g62
I54
tp2551
a(g64
I0
tp2552
a(g66
I17
tp2553
a(g68
I0
tp2554
a(g70
F0.0056179775280898875
tp2555
a(g72
F7417.0
tp2556
a(g74
F50.158176260825265
tp2557
a(g76
I1
tp2558
a(g78
I0
tp2559
aa(lp2560
(VMD
p2561
F0.0067226890756302525
tp2562
a(g4
F0.12156862745098039
tp2563
a(g20
F0.01568627450980392
tp2564
a(VVBG
p2565
F0.005042016806722689
tp2566
a(g10
F0.031932773109243695
tp2567
a(g12
F0.226890756302521
tp2568
a(VCC
p2569
F0.0257703081232493
tp2570
a(g6
F0.004481792717086834
tp2571
a(g36
F0.035854341736694675
tp2572
a(g18
F0.18935574229691876
tp2573
a(g96
F0.0028011204481792717
tp2574
a(VCD
p2575
F0.007282913165266107
tp2576
a(VPRP
p2577
F0.044257703081232495
tp2578
a(g24
F0.050980392156862744
tp2579
a(VIN
p2580
F0.11372549019607843
tp2581
a(VWP$
p2582
F0.018487394957983194
tp2583
a(VDT
p2584
F0.08739495798319327
tp2585
a(VPRP$
p2586
F0.008403361344537815
tp2587
a(VUH
p2588
F0.0033613445378151263
tp2589
a(g40
F1.0
tp2590
a(g42
F9.0
tp2591
a(g44
I23
tp2592
a(g46
I113
tp2593
a(g48
I0
tp2594
a(g50
I0
tp2595
a(g52
I0
tp2596
a(g54
I0
tp2597
a(g56
I8
tp2598
a(g58
I6
tp2599
a(g60
I81
tp2600
a(g62
I7
tp2601
a(g64
I0
tp2602
a(g66
I6
tp2603
a(g68
I0
tp2604
a(g70
F0.009900990099009901
tp2605
a(g72
F6640.0
tp2606
a(g74
F50.11736694677871
tp2607
a(g76
I0
tp2608
a(g78
I0
tp2609
aa(lp2610
(VMD
p2611
F0.005754475703324808
tp2612
a(g4
F0.10805626598465473
tp2613
a(g6
F0.0038363171355498722
tp2614
a(VVBG
p2615
F0.008312020460358057
tp2616
a(g24
F0.03964194373401535
tp2617
a(g12
F0.30498721227621484
tp2618
a(VCC
p2619
F0.03580562659846547
tp2620
a(g92
F0.0025575447570332483
tp2621
a(g36
F0.028132992327365727
tp2622
a(g18
F0.14769820971867006
tp2623
a(g96
F0.0019181585677749361
tp2624
a(VCD
p2625
F0.00319693094629156
tp2626
a(g20
F0.010230179028132993
tp2627
a(VPRP
p2628
F0.05754475703324808
tp2629
a(g10
F0.0370843989769821
tp2630
a(VIN
p2631
F0.10549872122762148
tp2632
a(VWP$
p2633
F0.00639386189258312
tp2634
a(VDT
p2635
F0.07289002557544758
tp2636
a(VPRP$
p2637
F0.019820971867007674
tp2638
a(VUH
p2639
F0.0006393861892583121
tp2640
a(g40
F13.0
tp2641
a(g42
F8.0
tp2642
a(g44
I21
tp2643
a(g46
I125
tp2644
a(g48
I0
tp2645
a(g50
I0
tp2646
a(g52
I0
tp2647
a(g54
I0
tp2648
a(g56
I0
tp2649
a(g58
I0
tp2650
a(g60
I38
tp2651
a(g62
I14
tp2652
a(g64
I0
tp2653
a(g66
I5
tp2654
a(g68
I0
tp2655
a(g70
F0.007407407407407408
tp2656
a(g72
F5983.0
tp2657
a(g74
F50.153132992327365
tp2658
a(g76
I0
tp2659
a(g78
I0
tp2660
aa(lp2661
(VZu
p2662
F0.001549186676994578
tp2663
a(VMD
p2664
F0.008520526723470178
tp2665
a(g4
F0.10302091402013942
tp2666
a(g20
F0.020139426800929512
tp2667
a(VVBG
p2668
F0.006971340046475601
tp2669
a(g24
F0.05034856700232378
tp2670
a(g12
F0.3214562354763749
tp2671
a(VCC
p2672
F0.031758326878388844
tp2673
a(g6
F0.001549186676994578
tp2674
a(VPRP$
p2675
F0.010844306738962044
tp2676
a(g18
F0.09450038729666925
tp2677
a(VPRP
p2678
F0.052672347017815646
tp2679
a(g10
F0.02865995352439969
tp2680
a(VIN
p2681
F0.12238574748257165
tp2682
a(VWP$
p2683
F0.013942680092951201
tp2684
a(g92
F0.001549186676994578
tp2685
a(VDT
p2686
F0.09604957397366383
tp2687
a(VCD
p2688
F0.0077459333849728895
tp2689
a(g36
F0.024012393493415957
tp2690
a(VUH
p2691
F0.0023237800154918666
tp2692
a(g40
F12.0
tp2693
a(g42
F22.0
tp2694
a(g44
I6
tp2695
a(g46
I12
tp2696
a(g48
I0
tp2697
a(g50
I3
tp2698
a(g52
I1
tp2699
a(g54
I0
tp2700
a(g56
I11
tp2701
a(g58
I-6
tp2702
a(g60
I7
tp2703
a(g62
I13
tp2704
a(g64
I0
tp2705
a(g66
I5
tp2706
a(g68
I0
tp2707
a(g70
F0.009900990099009901
tp2708
a(g72
F5164.0
tp2709
a(g74
F50.17660728117738
tp2710
a(g76
I0
tp2711
a(g78
I1
tp2712
aa(lp2713
(VMD
p2714
F0.007368421052631579
tp2715
a(g4
F0.06947368421052631
tp2716
a(g96
F0.0015789473684210526
tp2717
a(VVBG
p2718
F0.0015789473684210526
tp2719
a(g24
F0.027894736842105264
tp2720
a(g12
F0.44105263157894736
tp2721
a(VCC
p2722
F0.011052631578947368
tp2723
a(g92
F0.0015789473684210526
tp2724
a(g36
F0.023157894736842106
tp2725
a(VCD
p2726
F0.011052631578947368
tp2727
a(VPRP$
p2728
F0.002105263157894737
tp2729
a(g18
F0.14578947368421052
tp2730
a(g20
F0.017894736842105262
tp2731
a(VPRP
p2732
F0.014736842105263158
tp2733
a(g10
F0.03
tp2734
a(VIN
p2735
F0.08315789473684211
tp2736
a(VWP$
p2737
F0.023157894736842106
tp2738
a(VDT
p2739
F0.0731578947368421
tp2740
a(g6
F0.007368421052631579
tp2741
a(VUH
p2742
F0.006842105263157895
tp2743
a(g40
F8.0
tp2744
a(g42
F22.0
tp2745
a(g44
I51
tp2746
a(g46
I30
tp2747
a(g48
I0
tp2748
a(g50
I0
tp2749
a(g52
I0
tp2750
a(g54
I0
tp2751
a(g56
I9
tp2752
a(g58
I6
tp2753
a(g60
I46
tp2754
a(g62
I31
tp2755
a(g64
I9
tp2756
a(g66
I6
tp2757
a(g68
I0
tp2758
a(g70
F0.009708737864077669
tp2759
a(g72
F7847.0
tp2760
a(g74
F50.25342105263158
tp2761
a(g76
I0
tp2762
a(g78
I0
tp2763
aa(lp2764
(VMD
p2765
F0.008922443376801648
tp2766
a(g4
F0.12491420727522307
tp2767
a(g20
F0.013726835964310227
tp2768
a(VVBG
p2769
F0.002745367192862045
tp2770
a(g24
F0.04941660947151681
tp2771
a(g12
F0.28894989704873025
tp2772
a(VCC
p2773
F0.024021962937542895
tp2774
a(g92
F0.0006863417982155113
tp2775
a(g36
F0.029512697323266987
tp2776
a(g18
F0.14756348661633492
tp2777
a(g96
F0.0006863417982155113
tp2778
a(VCD
p2779
F0.0061770761839396015
tp2780
a(VPRP
p2781
F0.045298558682223745
tp2782
a(g10
F0.029512697323266987
tp2783
a(VIN
p2784
F0.11805078929306795
tp2785
a(VWP$
p2786
F0.017158544955387784
tp2787
a(VDT
p2788
F0.07069320521619767
tp2789
a(VPRP$
p2790
F0.01990391214824983
tp2791
a(VUH
p2792
F0.002059025394646534
tp2793
a(g40
F10.0
tp2794
a(g42
F28.0
tp2795
a(g44
I31
tp2796
a(g46
I66
tp2797
a(g48
I0
tp2798
a(g50
I0
tp2799
a(g52
I0
tp2800
a(g54
I0
tp2801
a(g56
I16
tp2802
a(g58
I-8
tp2803
a(g60
I41
tp2804
a(g62
I48
tp2805
a(g64
I0
tp2806
a(g66
I18
tp2807
a(g68
I0
tp2808
a(g70
F0.00847457627118644
tp2809
a(g72
F6422.0
tp2810
a(g74
F50.141386410432396
tp2811
a(g76
I2
tp2812
a(g78
I1
tp2813
aa(lp2814
(VMD
p2815
F0.0056144728633811605
tp2816
a(g4
F0.12289457267623206
tp2817
a(g20
F0.007485963817841547
tp2818
a(VVBG
p2819
F0.004990642545227698
tp2820
a(g24
F0.043044291952588895
tp2821
a(g12
F0.29070492825951344
tp2822
a(VCC
p2823
F0.025577043044291953
tp2824
a(VPRP$
p2825
F0.029320024953212728
tp2826
a(g18
F0.11228945726762321
tp2827
a(VCD
p2828
F0.006862133499688085
tp2829
a(VPRP
p2830
F0.037429819089207735
tp2831
a(g10
F0.049906425452276984
tp2832
a(VIN
p2833
F0.12289457267623206
tp2834
a(VWP$
p2835
F0.018091079226450407
tp2836
a(VDT
p2837
F0.09606986899563319
tp2838
a(g6
F0.004990642545227698
tp2839
a(g36
F0.021834061135371178
tp2840
a(g40
F3.0
tp2841
a(g42
F11.0
tp2842
a(g44
I34
tp2843
a(g46
I38
tp2844
a(g48
I0
tp2845
a(g50
I0
tp2846
a(g52
I0
tp2847
a(g54
I0
tp2848
a(g56
I2
tp2849
a(g58
I1
tp2850
a(g60
I41
tp2851
a(g62
I17
tp2852
a(g64
I0
tp2853
a(g66
I7
tp2854
a(g68
I0
tp2855
a(g70
F0.009900990099009901
tp2856
a(g72
F7154.0
tp2857
a(g74
F50.1756082345602
tp2858
a(g76
I1
tp2859
a(g78
I0
tp2860
aa(lp2861
(VMD
p2862
F0.008101851851851851
tp2863
a(g4
F0.09895833333333333
tp2864
a(g20
F0.017939814814814815
tp2865
a(VVBG
p2866
F0.0028935185185185184
tp2867
a(g10
F0.03530092592592592
tp2868
a(g12
F0.3119212962962963
tp2869
a(g96
F0.01678240740740741
tp2870
a(g92
F0.01678240740740741
tp2871
a(g36
F0.023148148148148147
tp2872
a(g18
F0.15219907407407407
tp2873
a(VPRP$
p2874
F0.01099537037037037
tp2875
a(VCC
p2876
F0.012152777777777778
tp2877
a(VCD
p2878
F0.012152777777777778
tp2879
a(VPRP
p2880
F0.03993055555555555
tp2881
a(g24
F0.045717592592592594
tp2882
a(VIN
p2883
F0.08969907407407407
tp2884
a(VWP$
p2885
F0.013888888888888888
tp2886
a(VDT
p2887
F0.07581018518518519
tp2888
a(g6
F0.01273148148148148
tp2889
a(VUH
p2890
F0.0028935185185185184
tp2891
a(g40
F9.0
tp2892
a(g42
F42.0
tp2893
a(g44
I21
tp2894
a(g46
I54
tp2895
a(g48
I0
tp2896
a(g50
I0
tp2897
a(g52
I0
tp2898
a(g54
I0
tp2899
a(g56
I8
tp2900
a(g58
I0
tp2901
a(g60
I58
tp2902
a(g62
I49
tp2903
a(g64
I0
tp2904
a(g66
I33
tp2905
a(g68
I0
tp2906
a(g70
F0.005714285714285714
tp2907
a(g72
F7407.0
tp2908
a(g74
F50.16116898148148
tp2909
a(g76
I1
tp2910
a(g78
I0
tp2911
aa(lp2912
(VMD
p2913
F0.006064281382656155
tp2914
a(g4
F0.06973923590054579
tp2915
a(g20
F0.014554275318374773
tp2916
a(VVBG
p2917
F0.001212856276531231
tp2918
a(g10
F0.02850212249848393
tp2919
a(g12
F0.4426925409338993
tp2920
a(VCC
p2921
F0.010309278350515464
tp2922
a(g92
F0.0030321406913280777
tp2923
a(g36
F0.023650697392359005
tp2924
a(g18
F0.12007277137659188
tp2925
a(VPRP$
p2926
F0.004851425106124924
tp2927
a(g96
F0.0036385688295936932
tp2928
a(VCD
p2929
F0.006064281382656155
tp2930
a(VUH
p2931
F0.004851425106124924
tp2932
a(g24
F0.041237113402061855
tp2933
a(VIN
p2934
F0.10369921164342026
tp2935
a(VWP$
p2936
F0.01758641600970285
tp2937
a(VDT
p2938
F0.07155852031534263
tp2939
a(g6
F0.006064281382656155
tp2940
a(VPRP
p2941
F0.020618556701030927
tp2942
a(g40
F9.0
tp2943
a(g42
F17.0
tp2944
a(g44
I26
tp2945
a(g46
I27
tp2946
a(g48
I0
tp2947
a(g50
I0
tp2948
a(g52
I0
tp2949
a(g54
I0
tp2950
a(g56
I5
tp2951
a(g58
I5
tp2952
a(g60
I64
tp2953
a(g62
I8
tp2954
a(g64
I2
tp2955
a(g66
I11
tp2956
a(g68
I0
tp2957
a(g70
F0.009900990099009901
tp2958
a(g72
F6899.0
tp2959
a(g74
F50.25439660400242
tp2960
a(g76
I0
tp2961
a(g78
I0
tp2962
aa(lp2963
(VMD
p2964
F0.007075471698113208
tp2965
a(g4
F0.1080188679245283
tp2966
a(g20
F0.014622641509433962
tp2967
a(VVBG
p2968
F0.005188679245283019
tp2969
a(g10
F0.03820754716981132
tp2970
a(g12
F0.2778301886792453
tp2971
a(g96
F0.005188679245283019
tp2972
a(g92
F0.005188679245283019
tp2973
a(g36
F0.02358490566037736
tp2974
a(g18
F0.15047169811320754
tp2975
a(VPRP$
p2976
F0.008490566037735849
tp2977
a(VCC
p2978
F0.04150943396226415
tp2979
a(VCD
p2980
F0.013207547169811321
tp2981
a(VPRP
p2982
F0.02688679245283019
tp2983
a(g24
F0.04716981132075472
tp2984
a(VIN
p2985
F0.11556603773584906
tp2986
a(VWP$
p2987
F0.013679245283018868
tp2988
a(VZu
p2989
F0.0023584905660377358
tp2990
a(VDT
p2991
F0.09056603773584905
tp2992
a(g6
F0.0047169811320754715
tp2993
a(VUH
p2994
F0.0004716981132075472
tp2995
a(g40
F54.0
tp2996
a(g42
F22.0
tp2997
a(g44
I87
tp2998
a(g46
I38
tp2999
a(g48
I0
tp3000
a(g50
I0
tp3001
a(g52
I0
tp3002
a(g54
I0
tp3003
a(g56
I3
tp3004
a(g58
I-1
tp3005
a(g60
I56
tp3006
a(g62
I47
tp3007
a(g64
I0
tp3008
a(g66
I8
tp3009
a(g68
I0
tp3010
a(g70
F0.009900990099009901
tp3011
a(g72
F8682.0
tp3012
a(g74
F50.16721698113208
tp3013
a(g76
I1
tp3014
a(g78
I0
tp3015
aa(lp3016
(VMD
p3017
F0.006316812439261419
tp3018
a(g4
F0.12050534499514091
tp3019
a(g20
F0.0058309037900874635
tp3020
a(VVBG
p3021
F0.001943634596695821
tp3022
a(g24
F0.03644314868804665
tp3023
a(g12
F0.3032069970845481
tp3024
a(VCC
p3025
F0.017006802721088437
tp3026
a(g92
F0.0058309037900874635
tp3027
a(g36
F0.024295432458697766
tp3028
a(g18
F0.09815354713313897
tp3029
a(VPRP$
p3030
F0.0058309037900874635
tp3031
a(g96
F0.0058309037900874635
tp3032
a(VCD
p3033
F0.034013605442176874
tp3034
a(VPRP
p3035
F0.013605442176870748
tp3036
a(g10
F0.052478134110787174
tp3037
a(VIN
p3038
F0.15014577259475217
tp3039
a(VWP$
p3040
F0.0184645286686103
tp3041
a(VDT
p3042
F0.08357628765792031
tp3043
a(g6
F0.01652089407191448
tp3044
a(g40
F30.0
tp3045
a(g42
F27.0
tp3046
a(g44
I9
tp3047
a(g46
I12
tp3048
a(g48
I0
tp3049
a(g50
I0
tp3050
a(g52
I0
tp3051
a(g54
I0
tp3052
a(g56
I0
tp3053
a(g58
I0
tp3054
a(g60
I72
tp3055
a(g62
I1
tp3056
a(g64
I0
tp3057
a(g66
I25
tp3058
a(g68
I0
tp3059
a(g70
F0.009900990099009901
tp3060
a(g72
F9262.0
tp3061
a(g74
F50.208454810495624
tp3062
a(g76
I0
tp3063
a(g78
I0
tp3064
aa(lp3065
(VMD
p3066
F0.007547169811320755
tp3067
a(g4
F0.07773584905660377
tp3068
a(g20
F0.0060377358490566035
tp3069
a(VVBG
p3070
F0.0022641509433962265
tp3071
a(g24
F0.0369811320754717
tp3072
a(g12
F0.3471698113207547
tp3073
a(g96
F0.00830188679245283
tp3074
a(g92
F0.007547169811320755
tp3075
a(VPRP$
p3076
F0.007547169811320755
tp3077
a(g18
F0.19018867924528302
tp3078
a(VCC
p3079
F0.02188679245283019
tp3080
a(g6
F0.0037735849056603774
tp3081
a(VPRP
p3082
F0.03018867924528302
tp3083
a(g10
F0.02490566037735849
tp3084
a(VIN
p3085
F0.11320754716981132
tp3086
a(VWP$
p3087
F0.017358490566037735
tp3088
a(VZu
p3089
F0.0022641509433962265
tp3090
a(VDT
p3091
F0.06415094339622641
tp3092
a(VCD
p3093
F0.009056603773584906
tp3094
a(g36
F0.019622641509433963
tp3095
a(VUH
p3096
F0.0022641509433962265
tp3097
a(g40
F11.0
tp3098
a(g42
F64.0
tp3099
a(g44
I16
tp3100
a(g46
I119
tp3101
a(g48
I0
tp3102
a(g50
I0
tp3103
a(g52
I0
tp3104
a(g54
I0
tp3105
a(g56
I1
tp3106
a(g58
I-1
tp3107
a(g60
I48
tp3108
a(g62
I36
tp3109
a(g64
I0
tp3110
a(g66
I55
tp3111
a(g68
I0
tp3112
a(g70
F0.009174311926605505
tp3113
a(g72
F6157.0
tp3114
a(g74
F50.2
tp3115
a(g76
I2
tp3116
a(g78
I0
tp3117
aa(lp3118
(VMD
p3119
F0.004964147821290678
tp3120
a(g4
F0.08549365692222835
tp3121
a(g20
F0.022614451185879757
tp3122
a(g24
F0.015995587424158852
tp3123
a(g12
F0.3921676778819636
tp3124
a(VCC
p3125
F0.014340871483728626
tp3126
a(g6
F0.00441257584114727
tp3127
a(g36
F0.012134583563154992
tp3128
a(g18
F0.14175399889685603
tp3129
a(VPRP$
p3130
F0.00827357970215113
tp3131
a(VUH
p3132
F0.0005515719801434088
tp3133
a(g10
F0.04081632653061224
tp3134
a(VIN
p3135
F0.1252068394925538
tp3136
a(VWP$
p3137
F0.007722007722007722
tp3138
a(VDT
p3139
F0.09266409266409266
tp3140
a(VCD
p3141
F0.013789299503585218
tp3142
a(VPRP
p3143
F0.01709873138444567
tp3144
a(g40
F11.0
tp3145
a(g42
F75.0
tp3146
a(g44
I3
tp3147
a(g46
I4
tp3148
a(g48
I0
tp3149
a(g50
I0
tp3150
a(g52
I0
tp3151
a(g54
I0
tp3152
a(g56
I0
tp3153
a(g58
I0
tp3154
a(g60
I82
tp3155
a(g62
I123
tp3156
a(g64
I0
tp3157
a(g66
I71
tp3158
a(g68
I0
tp3159
a(g70
F0.009900990099009901
tp3160
a(g72
F9023.0
tp3161
a(g74
F50.26585769442912
tp3162
a(g76
I0
tp3163
a(g78
I0
tp3164
aa(lp3165
(VMD
p3166
F0.007431874483897605
tp3167
a(g4
F0.11230388109000826
tp3168
a(g20
F0.011560693641618497
tp3169
a(VVBG
p3170
F0.002477291494632535
tp3171
a(g24
F0.05615194054500413
tp3172
a(g12
F0.3104872006606111
tp3173
a(VCC
p3174
F0.02477291494632535
tp3175
a(g6
F0.0008257638315441783
tp3176
a(VPRP$
p3177
F0.011560693641618497
tp3178
a(g18
F0.13047068538398018
tp3179
a(g96
F0.0008257638315441783
tp3180
a(VPRP
p3181
F0.05615194054500413
tp3182
a(g10
F0.04046242774566474
tp3183
a(VIN
p3184
F0.09413707679603633
tp3185
a(VWP$
p3186
F0.02477291494632535
tp3187
a(g92
F0.0008257638315441783
tp3188
a(VDT
p3189
F0.07927332782824112
tp3190
a(VCD
p3191
F0.00495458298926507
tp3192
a(g36
F0.028075970272502065
tp3193
a(VUH
p3194
F0.002477291494632535
tp3195
a(g40
F4.0
tp3196
a(g42
F14.0
tp3197
a(g44
I23
tp3198
a(g46
I28
tp3199
a(g48
I1
tp3200
a(g50
I0
tp3201
a(g52
I0
tp3202
a(g54
I0
tp3203
a(g56
I12
tp3204
a(g58
I0
tp3205
a(g60
I67
tp3206
a(g62
I1
tp3207
a(g64
I0
tp3208
a(g66
I7
tp3209
a(g68
I0
tp3210
a(g70
F0.009523809523809525
tp3211
a(g72
F4821.0
tp3212
a(g74
F50.14739884393064
tp3213
a(g76
I1
tp3214
a(g78
I0
tp3215
aa(lp3216
(VMD
p3217
F0.013609850939727802
tp3218
a(g4
F0.09526895657809462
tp3219
a(g20
F0.03240440699935191
tp3220
a(VVBG
p3221
F0.0038885288399222295
tp3222
a(g24
F0.03953337653920933
tp3223
a(g12
F0.29552819183408946
tp3224
a(VCC
p3225
F0.029812054439403757
tp3226
a(g6
F0.0038885288399222295
tp3227
a(g36
F0.02138690861957226
tp3228
a(g18
F0.13156189241736876
tp3229
a(VCD
p3230
F0.013609850939727802
tp3231
a(VPRP
p3232
F0.04018146467919637
tp3233
a(g10
F0.04860661049902787
tp3234
a(VIN
p3235
F0.10693454309786131
tp3236
a(VWP$
p3237
F0.015554115359688918
tp3238
a(VZu
p3239
F0.0006480881399870382
tp3240
a(VDT
p3241
F0.09462086843810759
tp3242
a(VPRP$
p3243
F0.01101749837977965
tp3244
a(VUH
p3245
F0.0019442644199611147
tp3246
a(g40
F40.0
tp3247
a(g42
F15.0
tp3248
a(g44
I8
tp3249
a(g46
I10
tp3250
a(g48
I0
tp3251
a(g50
I0
tp3252
a(g52
I4
tp3253
a(g54
I0
tp3254
a(g56
I13
tp3255
a(g58
I8
tp3256
a(g60
I29
tp3257
a(g62
I25
tp3258
a(g64
I0
tp3259
a(g66
I3
tp3260
a(g68
I0
tp3261
a(g70
F0.009259259259259259
tp3262
a(g72
F6229.0
tp3263
a(g74
F50.182436811406355
tp3264
a(g76
I0
tp3265
a(g78
I0
tp3266
aa(lp3267
(VMD
p3268
F0.009037745879851143
tp3269
a(g4
F0.08399787347155768
tp3270
a(g6
F0.018607123870281767
tp3271
a(VVBG
p3272
F0.002126528442317916
tp3273
a(g24
F0.0430622009569378
tp3274
a(g12
F0.3668261562998405
tp3275
a(g96
F0.009037745879851143
tp3276
a(g92
F0.009037745879851143
tp3277
a(g36
F0.023391812865497075
tp3278
a(VCD
p3279
F0.007974481658692184
tp3280
a(VPRP$
p3281
F0.011695906432748537
tp3282
a(VCC
p3283
F0.023391812865497075
tp3284
a(g20
F0.009037745879851143
tp3285
a(VPRP
p3286
F0.029771398192450824
tp3287
a(g10
F0.03668261562998405
tp3288
a(VIN
p3289
F0.12971823498139287
tp3290
a(VWP$
p3291
F0.012759170653907496
tp3292
a(VDT
p3293
F0.08559276980329612
tp3294
a(g18
F0.08665603402445508
tp3295
a(VUH
p3296
F0.001594896331738437
tp3297
a(g40
F9.0
tp3298
a(g42
F50.0
tp3299
a(g44
I9
tp3300
a(g46
I11
tp3301
a(g48
I0
tp3302
a(g50
I0
tp3303
a(g52
I0
tp3304
a(g54
I0
tp3305
a(g56
I2
tp3306
a(g58
I2
tp3307
a(g60
I87
tp3308
a(g62
I14
tp3309
a(g64
I17
tp3310
a(g66
I35
tp3311
a(g68
I0
tp3312
a(g70
F0.009900990099009901
tp3313
a(g72
F8526.0
tp3314
a(g74
F50.229133439659755
tp3315
a(g76
I0
tp3316
a(g78
I0
tp3317
aa(lp3318
(VMD
p3319
F0.018262313226342003
tp3320
a(g4
F0.11787493082457111
tp3321
a(g20
F0.004427227448810182
tp3322
a(VVBG
p3323
F0.003320420586607637
tp3324
a(g10
F0.047592695074709465
tp3325
a(g12
F0.2916436081903708
tp3326
a(VCC
p3327
F0.02545655783065855
tp3328
a(g6
F0.002213613724405091
tp3329
a(VPRP$
p3330
F0.00774764803541782
tp3331
a(g18
F0.0835639180962922
tp3332
a(g96
F0.0016602102933038186
tp3333
a(VPRP
p3334
F0.042058660763696736
tp3335
a(g24
F0.05257332595462092
tp3336
a(VIN
p3337
F0.1344770337576093
tp3338
a(VWP$
p3339
F0.01770890979524073
tp3340
a(g92
F0.0016602102933038186
tp3341
a(VDT
p3342
F0.1018262313226342
tp3343
a(VCD
p3344
F0.01162147205312673
tp3345
a(g36
F0.03320420586607637
tp3346
a(VUH
p3347
F0.0011068068622025456
tp3348
a(g40
F7.0
tp3349
a(g42
F31.0
tp3350
a(g44
I3
tp3351
a(g46
I3
tp3352
a(g48
I0
tp3353
a(g50
I0
tp3354
a(g52
I2
tp3355
a(g54
I0
tp3356
a(g56
I8
tp3357
a(g58
I8
tp3358
a(g60
I65
tp3359
a(g62
I10
tp3360
a(g64
I0
tp3361
a(g66
I19
tp3362
a(g68
I0
tp3363
a(g70
F0.009900990099009901
tp3364
a(g72
F8091.0
tp3365
a(g74
F50.17930271167681
tp3366
a(g76
I0
tp3367
a(g78
I0
tp3368
aa(lp3369
(VMD
p3370
F0.003244997295835587
tp3371
a(g4
F0.07409410492157924
tp3372
a(g20
F0.022714981070849107
tp3373
a(VVBG
p3374
F0.003244997295835587
tp3375
a(g24
F0.018929150892374257
tp3376
a(g12
F0.40292049756625203
tp3377
a(VCC
p3378
F0.018929150892374257
tp3379
a(g6
F0.020010816657652784
tp3380
a(g36
F0.022714981070849107
tp3381
a(g18
F0.1141157382368848
tp3382
a(VPRP$
p3383
F0.008653326122228232
tp3384
a(g96
F0.0016224986479177934
tp3385
a(VPRP
p3386
F0.014061654948620876
tp3387
a(g10
F0.03623580313683072
tp3388
a(VIN
p3389
F0.12114656571119524
tp3390
a(VWP$
p3391
F0.008653326122228232
tp3392
a(g92
F0.0016224986479177934
tp3393
a(VDT
p3394
F0.08761492698756085
tp3395
a(VCD
p3396
F0.018929150892374257
tp3397
a(VUH
p3398
F0.0005408328826392645
tp3399
a(g40
F7.0
tp3400
a(g42
F73.0
tp3401
a(g44
I19
tp3402
a(g46
I14
tp3403
a(g48
I0
tp3404
a(g50
I0
tp3405
a(g52
I0
tp3406
a(g54
I0
tp3407
a(g56
I1
tp3408
a(g58
I0
tp3409
a(g60
I84
tp3410
a(g62
I53
tp3411
a(g64
I8
tp3412
a(g66
I64
tp3413
a(g68
I0
tp3414
a(g70
F0.009900990099009901
tp3415
a(g72
F9331.0
tp3416
a(g74
F50.268523526230396
tp3417
a(g76
I0
tp3418
a(g78
I0
tp3419
aa(lp3420
(VMD
p3421
F0.009357454772301934
tp3422
a(g4
F0.10355583281347473
tp3423
a(g20
F0.008109794135995009
tp3424
a(VVBG
p3425
F0.0037429819089207735
tp3426
a(g24
F0.047411104179663134
tp3427
a(g12
F0.29507174048658763
tp3428
a(VCC
p3429
F0.026200873362445413
tp3430
a(g6
F0.0018714909544603868
tp3431
a(VPRP$
p3432
F0.013100436681222707
tp3433
a(g18
F0.15970056144728634
tp3434
a(VPRP
p3435
F0.041796631316281974
tp3436
a(g10
F0.028072364316905803
tp3437
a(VIN
p3438
F0.12850904553961323
tp3439
a(VWP$
p3440
F0.022457891453524642
tp3441
a(g92
F0.0006238303181534623
tp3442
a(VDT
p3443
F0.0842170929507174
tp3444
a(VCD
p3445
F0.004990642545227698
tp3446
a(g36
F0.019962570180910792
tp3447
a(VUH
p3448
F0.0012476606363069245
tp3449
a(g40
F9.0
tp3450
a(g42
F16.0
tp3451
a(g44
I47
tp3452
a(g46
I13
tp3453
a(g48
I0
tp3454
a(g50
I0
tp3455
a(g52
I1
tp3456
a(g54
I0
tp3457
a(g56
I1
tp3458
a(g58
I1
tp3459
a(g60
I71
tp3460
a(g62
I13
tp3461
a(g64
I0
tp3462
a(g66
I5
tp3463
a(g68
I0
tp3464
a(g70
F0.009900990099009901
tp3465
a(g72
F6489.0
tp3466
a(g74
F50.16905801621959
tp3467
a(g76
I0
tp3468
a(g78
I0
tp3469
aa(lp3470
(VMD
p3471
F0.011647254575707155
tp3472
a(g4
F0.0956738768718802
tp3473
a(g20
F0.0324459234608985
tp3474
a(VVBG
p3475
F0.0033277870216306157
tp3476
a(g10
F0.042429284525790346
tp3477
a(g12
F0.2579034941763727
tp3478
a(VCC
p3479
F0.02329450915141431
tp3480
a(g92
F0.004159733777038269
tp3481
a(g36
F0.02745424292845258
tp3482
a(g18
F0.21214642262895175
tp3483
a(VPRP$
p3484
F0.0074875207986688855
tp3485
a(g96
F0.0074875207986688855
tp3486
a(VCD
p3487
F0.0024958402662229617
tp3488
a(VPRP
p3489
F0.04076539101497504
tp3490
a(g24
F0.04742096505823627
tp3491
a(VIN
p3492
F0.09400998336106489
tp3493
a(VWP$
p3494
F0.011647254575707155
tp3495
a(VZu
p3496
F0.0024958402662229617
tp3497
a(VDT
p3498
F0.06905158069883527
tp3499
a(g6
F0.005823627287853577
tp3500
a(VUH
p3501
F0.0008319467554076539
tp3502
a(g40
F1.0
tp3503
a(g42
F6.0
tp3504
a(g44
I2
tp3505
a(g46
I113
tp3506
a(g48
I0
tp3507
a(g50
I0
tp3508
a(g52
I0
tp3509
a(g54
I0
tp3510
a(g56
I13
tp3511
a(g58
I3
tp3512
a(g60
I48
tp3513
a(g62
I1
tp3514
a(g64
I0
tp3515
a(g66
I3
tp3516
a(g68
I0
tp3517
a(g70
F0.00980392156862745
tp3518
a(g72
F4365.0
tp3519
a(g74
F50.13768718801997
tp3520
a(g76
I0
tp3521
a(g78
I0
tp3522
aa(lp3523
(VMD
p3524
F0.025095471903982543
tp3525
a(VPRP$
p3526
F0.0070921985815602835
tp3527
a(g6
F0.002182214948172395
tp3528
a(VVBG
p3529
F0.00872885979268958
tp3530
a(g24
F0.057283142389525366
tp3531
a(g12
F0.2629569012547736
tp3532
a(VCC
p3533
F0.031642116748499725
tp3534
a(g92
F0.002182214948172395
tp3535
a(g36
F0.03055100927441353
tp3536
a(g18
F0.10965630114566285
tp3537
a(g4
F0.11674849972722313
tp3538
a(g96
F0.002727768685215494
tp3539
a(g20
F0.009274413529732678
tp3540
a(VPRP
p3541
F0.05182760501909438
tp3542
a(g10
F0.028914348063284235
tp3543
a(VIN
p3544
F0.1352973267866885
tp3545
a(VWP$
p3546
F0.016366612111292964
tp3547
a(VDT
p3548
F0.0927441352973268
tp3549
a(VCD
p3550
F0.0070921985815602835
tp3551
a(VUH
p3552
F0.0016366612111292963
tp3553
a(g40
F31.0
tp3554
a(g42
F17.0
tp3555
a(g44
I0
tp3556
a(g46
I33
tp3557
a(g48
I0
tp3558
a(g50
I0
tp3559
a(g52
I4
tp3560
a(g54
I0
tp3561
a(g56
I17
tp3562
a(g58
I13
tp3563
a(g60
I53
tp3564
a(g62
I1
tp3565
a(g64
I0
tp3566
a(g66
I10
tp3567
a(g68
I0
tp3568
a(g70
F0.008928571428571428
tp3569
a(g72
F7298.0
tp3570
a(g74
F50.141843971631204
tp3571
a(g76
I0
tp3572
a(g78
I0
tp3573
aa(lp3574
(VMD
p3575
F0.0030075187969924814
tp3576
a(g4
F0.07067669172932331
tp3577
a(g6
F0.002506265664160401
tp3578
a(VVBG
p3579
F0.0020050125313283208
tp3580
a(g10
F0.0431077694235589
tp3581
a(g12
F0.33283208020050126
tp3582
a(VCC
p3583
F0.013032581453634085
tp3584
a(g36
F0.015538847117794486
tp3585
a(g18
F0.1924812030075188
tp3586
a(VPRP$
p3587
F0.0030075187969924814
tp3588
a(g20
F0.011027568922305764
tp3589
a(VPRP
p3590
F0.014536340852130326
tp3591
a(g24
F0.02406015037593985
tp3592
a(VIN
p3593
F0.14085213032581453
tp3594
a(VWP$
p3595
F0.009523809523809525
tp3596
a(VDT
p3597
F0.10726817042606517
tp3598
a(VCD
p3599
F0.013533834586466165
tp3600
a(VUH
p3601
F0.0010025062656641604
tp3602
a(g40
F14.0
tp3603
a(g42
F54.0
tp3604
a(g44
I3
tp3605
a(g46
I5
tp3606
a(g48
I0
tp3607
a(g50
I0
tp3608
a(g52
I0
tp3609
a(g54
I0
tp3610
a(g56
I2
tp3611
a(g58
I2
tp3612
a(g60
I50
tp3613
a(g62
I264
tp3614
a(g64
I0
tp3615
a(g66
I50
tp3616
a(g68
I0
tp3617
a(g70
F0.009900990099009901
tp3618
a(g72
F9324.0
tp3619
a(g74
F50.25588972431078
tp3620
a(g76
I4
tp3621
a(g78
I0
tp3622
aa(lp3623
(VMD
p3624
F0.015207373271889401
tp3625
a(g4
F0.07373271889400922
tp3626
a(g6
F0.010138248847926268
tp3627
a(VVBG
p3628
F0.0069124423963133645
tp3629
a(g10
F0.028110599078341014
tp3630
a(g12
F0.3493087557603687
tp3631
a(VCC
p3632
F0.011059907834101382
tp3633
a(g92
F0.0009216589861751152
tp3634
a(g36
F0.02304147465437788
tp3635
a(g18
F0.17649769585253455
tp3636
a(g96
F0.0018433179723502304
tp3637
a(VCD
p3638
F0.008294930875576038
tp3639
a(g20
F0.008294930875576038
tp3640
a(VPRP
p3641
F0.027188940092165898
tp3642
a(g24
F0.03870967741935484
tp3643
a(VIN
p3644
F0.11612903225806452
tp3645
a(VWP$
p3646
F0.016129032258064516
tp3647
a(VDT
p3648
F0.0728110599078341
tp3649
a(VPRP$
p3650
F0.012442396313364055
tp3651
a(VUH
p3652
F0.0032258064516129032
tp3653
a(g40
F19.0
tp3654
a(g42
F56.0
tp3655
a(g44
I83
tp3656
a(g46
I25
tp3657
a(g48
I0
tp3658
a(g50
I0
tp3659
a(g52
I0
tp3660
a(g54
I0
tp3661
a(g56
I28
tp3662
a(g58
I20
tp3663
a(g60
I143
tp3664
a(g62
I38
tp3665
a(g64
I14
tp3666
a(g66
I50
tp3667
a(g68
I0
tp3668
a(g70
F0.009900990099009901
tp3669
a(g72
F9858.0
tp3670
a(g74
F50.208294930875574
tp3671
a(g76
I0
tp3672
a(g78
I0
tp3673
aa(lp3674
(VMD
p3675
F0.005390835579514825
tp3676
a(VPRP$
p3677
F0.011320754716981131
tp3678
a(g6
F0.01778975741239892
tp3679
a(VVBG
p3680
F0.004851752021563342
tp3681
a(g24
F0.024797843665768194
tp3682
a(g12
F0.3886792452830189
tp3683
a(VCC
p3684
F0.016172506738544475
tp3685
a(g92
F0.001078167115902965
tp3686
a(g36
F0.022641509433962263
tp3687
a(g18
F0.1105121293800539
tp3688
a(g4
F0.06522911051212937
tp3689
a(g96
F0.001078167115902965
tp3690
a(g20
F0.02371967654986523
tp3691
a(VPRP
p3692
F0.016711590296495958
tp3693
a(g10
F0.05498652291105121
tp3694
a(VIN
p3695
F0.1293800539083558
tp3696
a(VWP$
p3697
F0.007008086253369272
tp3698
a(VZu
p3699
F0.0005390835579514825
tp3700
a(VDT
p3701
F0.08409703504043127
tp3702
a(VCD
p3703
F0.013477088948787063
tp3704
a(VUH
p3705
F0.0005390835579514825
tp3706
a(g40
F48.0
tp3707
a(g42
F75.0
tp3708
a(g44
I27
tp3709
a(g46
I3
tp3710
a(g48
I0
tp3711
a(g50
I0
tp3712
a(g52
I0
tp3713
a(g54
I0
tp3714
a(g56
I0
tp3715
a(g58
I0
tp3716
a(g60
I83
tp3717
a(g62
I38
tp3718
a(g64
I0
tp3719
a(g66
I71
tp3720
a(g68
I0
tp3721
a(g70
F0.009174311926605505
tp3722
a(g72
F9712.0
tp3723
a(g74
F50.27250673854447
tp3724
a(g76
I1
tp3725
a(g78
I0
tp3726
aa(lp3727
(VMD
p3728
F0.004120070629782225
tp3729
a(g4
F0.07004120070629782
tp3730
a(g20
F0.012948793407886992
tp3731
a(VVBG
p3732
F0.003531489111241907
tp3733
a(g10
F0.0329605650382578
tp3734
a(g12
F0.37080635668040024
tp3735
a(VCC
p3736
F0.020011771630370805
tp3737
a(g92
F0.0011771630370806356
tp3738
a(g36
F0.028840494408475574
tp3739
a(g18
F0.15008828722778106
tp3740
a(VPRP$
p3741
F0.011183048852266038
tp3742
a(g96
F0.0011771630370806356
tp3743
a(VCD
p3744
F0.012360211889346674
tp3745
a(VPRP
p3746
F0.018246027074749854
tp3747
a(g24
F0.030606238964096526
tp3748
a(VIN
p3749
F0.13419658622719247
tp3750
a(VWP$
p3751
F0.007062978222483814
tp3752
a(VZu
p3753
F0.0005885815185403178
tp3754
a(VDT
p3755
F0.07533843437316068
tp3756
a(g6
F0.012948793407886992
tp3757
a(VUH
p3758
F0.0017657445556209534
tp3759
a(g40
F15.0
tp3760
a(g42
F47.0
tp3761
a(g44
I35
tp3762
a(g46
I5
tp3763
a(g48
I0
tp3764
a(g50
I0
tp3765
a(g52
I0
tp3766
a(g54
I0
tp3767
a(g56
I0
tp3768
a(g58
I0
tp3769
a(g60
I120
tp3770
a(g62
I34
tp3771
a(g64
I0
tp3772
a(g66
I43
tp3773
a(g68
I0
tp3774
a(g70
F0.007042253521126761
tp3775
a(g72
F7643.0
tp3776
a(g74
F50.244555620953506
tp3777
a(g76
I0
tp3778
a(g78
I1
tp3779
aa(lp3780
(VMD
p3781
F0.013210798391728892
tp3782
a(g4
F0.09075244112578977
tp3783
a(g20
F0.0022975301550832855
tp3784
a(VVBG
p3785
F0.004595060310166571
tp3786
a(g24
F0.04422745548535324
tp3787
a(g12
F0.32395175186674324
tp3788
a(VCC
p3789
F0.018380241240666284
tp3790
a(g92
F0.0005743825387708214
tp3791
a(VPRP$
p3792
F0.009764503159103963
tp3793
a(g18
F0.16599655370476737
tp3794
a(g96
F0.0011487650775416428
tp3795
a(g6
F0.002871912693854107
tp3796
a(VPRP
p3797
F0.039058012636415854
tp3798
a(g10
F0.024124066628374498
tp3799
a(VIN
p3800
F0.11602527283170591
tp3801
a(VWP$
p3802
F0.014933946008041356
tp3803
a(VZu
p3804
F0.0005743825387708214
tp3805
a(VDT
p3806
F0.0941987363584147
tp3807
a(VCD
p3808
F0.012062033314187249
tp3809
a(g36
F0.019529006318207927
tp3810
a(VUH
p3811
F0.0017231476163124641
tp3812
a(g40
F16.0
tp3813
a(g42
F30.0
tp3814
a(g44
I54
tp3815
a(g46
I22
tp3816
a(g48
I0
tp3817
a(g50
I0
tp3818
a(g52
I0
tp3819
a(g54
I0
tp3820
a(g56
I4
tp3821
a(g58
I1
tp3822
a(g60
I98
tp3823
a(g62
I6
tp3824
a(g64
I1
tp3825
a(g66
I12
tp3826
a(g68
I0
tp3827
a(g70
F0.009523809523809525
tp3828
a(g72
F7191.0
tp3829
a(g74
F50.1889718552556
tp3830
a(g76
I0
tp3831
a(g78
I0
tp3832
aa(lp3833
(VMD
p3834
F0.0019218449711723255
tp3835
a(g4
F0.12427930813581038
tp3836
a(g20
F0.03267136450992953
tp3837
a(VVBG
p3838
F0.0025624599615631004
tp3839
a(g24
F0.04099935938500961
tp3840
a(g12
F0.3074951953875721
tp3841
a(VCC
p3842
F0.025624599615631006
tp3843
a(g92
F0.0006406149903907751
tp3844
a(VPRP$
p3845
F0.021780909673286355
tp3846
a(g36
F0.016655989750160152
tp3847
a(g96
F0.0006406149903907751
tp3848
a(VCD
p3849
F0.003843689942344651
tp3850
a(g6
F0.013452914798206279
tp3851
a(VPRP
p3852
F0.033311979500320305
tp3853
a(g10
F0.04484304932735426
tp3854
a(VIN
p3855
F0.108263933376041
tp3856
a(VWP$
p3857
F0.019218449711723255
tp3858
a(VDT
p3859
F0.09737347853939782
tp3860
a(g18
F0.10185778347213324
tp3861
a(VUH
p3862
F0.0025624599615631004
tp3863
a(g40
F1.0
tp3864
a(g42
F33.0
tp3865
a(g44
I48
tp3866
a(g46
I21
tp3867
a(g48
I0
tp3868
a(g50
I0
tp3869
a(g52
I0
tp3870
a(g54
I0
tp3871
a(g56
I2
tp3872
a(g58
I2
tp3873
a(g60
I39
tp3874
a(g62
I8
tp3875
a(g64
I1
tp3876
a(g66
I25
tp3877
a(g68
I0
tp3878
a(g70
F0.00980392156862745
tp3879
a(g72
F6967.0
tp3880
a(g74
F50.17713004484305
tp3881
a(g76
I3
tp3882
a(g78
I0
tp3883
aa(lp3884
(VMD
p3885
F0.010651629072681704
tp3886
a(g4
F0.08959899749373433
tp3887
a(g6
F0.006265664160401002
tp3888
a(VVBG
p3889
F0.0012531328320802004
tp3890
a(g10
F0.05012531328320802
tp3891
a(g12
F0.3283208020050125
tp3892
a(VCC
p3893
F0.020676691729323307
tp3894
a(g92
F0.006892230576441102
tp3895
a(g36
F0.045739348370927316
tp3896
a(g18
F0.12844611528822056
tp3897
a(VPRP$
p3898
F0.005639097744360902
tp3899
a(g96
F0.006265664160401002
tp3900
a(g20
F0.011278195488721804
tp3901
a(VPRP
p3902
F0.02506265664160401
tp3903
a(g24
F0.03759398496240601
tp3904
a(VIN
p3905
F0.10651629072681704
tp3906
a(VWP$
p3907
F0.011904761904761904
tp3908
a(VZu
p3909
F0.013784461152882205
tp3910
a(VDT
p3911
F0.08583959899749373
tp3912
a(VCD
p3913
F0.007518796992481203
tp3914
a(VUH
p3915
F0.0006265664160401002
tp3916
a(g40
F17.0
tp3917
a(g42
F68.0
tp3918
a(g44
I4
tp3919
a(g46
I10
tp3920
a(g48
I0
tp3921
a(g50
I1
tp3922
a(g52
I0
tp3923
a(g54
I0
tp3924
a(g56
I15
tp3925
a(g58
I15
tp3926
a(g60
I76
tp3927
a(g62
I22
tp3928
a(g64
I5
tp3929
a(g66
I63
tp3930
a(g68
I0
tp3931
a(g70
F0.009900990099009901
tp3932
a(g72
F7600.0
tp3933
a(g74
F50.208333333333336
tp3934
a(g76
I1
tp3935
a(g78
I0
tp3936
aa(lp3937
(VZu
p3938
F0.003996003996003996
tp3939
a(VMD
p3940
F0.00949050949050949
tp3941
a(g4
F0.08791208791208792
tp3942
a(g20
F0.02197802197802198
tp3943
a(VVBG
p3944
F0.005994005994005994
tp3945
a(g24
F0.04295704295704296
tp3946
a(g12
F0.3041958041958042
tp3947
a(VCC
p3948
F0.017482517482517484
tp3949
a(g6
F0.008991008991008992
tp3950
a(g36
F0.014985014985014986
tp3951
a(g18
F0.18281718281718282
tp3952
a(VPRP$
p3953
F0.01048951048951049
tp3954
a(g96
F0.00999000999000999
tp3955
a(VPRP
p3956
F0.03696303696303696
tp3957
a(g10
F0.025974025974025976
tp3958
a(VIN
p3959
F0.11038961038961038
tp3960
a(VWP$
p3961
F0.012487512487512488
tp3962
a(g92
F0.00999000999000999
tp3963
a(VDT
p3964
F0.07492507492507493
tp3965
a(VCD
p3966
F0.007992007992007992
tp3967
a(g40
F38.0
tp3968
a(g42
F58.0
tp3969
a(g44
I23
tp3970
a(g46
I123
tp3971
a(g48
I0
tp3972
a(g50
I0
tp3973
a(g52
I0
tp3974
a(g54
I0
tp3975
a(g56
I5
tp3976
a(g58
I-3
tp3977
a(g60
I75
tp3978
a(g62
I34
tp3979
a(g64
I0
tp3980
a(g66
I31
tp3981
a(g68
I0
tp3982
a(g70
F0.005025125628140704
tp3983
a(g72
F8061.0
tp3984
a(g74
F50.17082917082917
tp3985
a(g76
I0
tp3986
a(g78
I0
tp3987
aa(lp3988
(VMD
p3989
F0.0164021164021164
tp3990
a(g4
F0.10952380952380952
tp3991
a(g6
F0.0021164021164021165
tp3992
a(VVBG
p3993
F0.004232804232804233
tp3994
a(g24
F0.03968253968253968
tp3995
a(g12
F0.3386243386243386
tp3996
a(VCC
p3997
F0.02328042328042328
tp3998
a(g36
F0.021693121693121695
tp3999
a(g18
F0.13333333333333333
tp4000
a(VPRP$
p4001
F0.008465608465608466
tp4002
a(g20
F0.01216931216931217
tp4003
a(VPRP
p4004
F0.025925925925925925
tp4005
a(g10
F0.03597883597883598
tp4006
a(VIN
p4007
F0.11322751322751323
tp4008
a(VWP$
p4009
F0.015873015873015872
tp4010
a(VZu
p4011
F0.0010582010582010583
tp4012
a(VDT
p4013
F0.08677248677248678
tp4014
a(VCD
p4015
F0.010052910052910053
tp4016
a(VUH
p4017
F0.0015873015873015873
tp4018
a(g40
F40.0
tp4019
a(g42
F25.0
tp4020
a(g44
I25
tp4021
a(g46
I33
tp4022
a(g48
I0
tp4023
a(g50
I0
tp4024
a(g52
I2
tp4025
a(g54
I0
tp4026
a(g56
I1
tp4027
a(g58
I-1
tp4028
a(g60
I60
tp4029
a(g62
I4
tp4030
a(g64
I0
tp4031
a(g66
I12
tp4032
a(g68
I0
tp4033
a(g70
F0.009900990099009901
tp4034
a(g72
F7677.0
tp4035
a(g74
F50.196825396825396
tp4036
a(g76
I2
tp4037
a(g78
I0
tp4038
aa(lp4039
(VMD
p4040
F0.005772005772005772
tp4041
a(g4
F0.08441558441558442
tp4042
a(g20
F0.004329004329004329
tp4043
a(VVBG
p4044
F0.0021645021645021645
tp4045
a(g10
F0.02813852813852814
tp4046
a(g12
F0.33116883116883117
tp4047
a(VCC
p4048
F0.024531024531024532
tp4049
a(g92
F0.0007215007215007215
tp4050
a(g36
F0.017316017316017316
tp4051
a(g18
F0.1976911976911977
tp4052
a(VPRP$
p4053
F0.015151515151515152
tp4054
a(g6
F0.0007215007215007215
tp4055
a(VPRP
p4056
F0.0367965367965368
tp4057
a(g24
F0.04112554112554113
tp4058
a(VIN
p4059
F0.09884559884559885
tp4060
a(VWP$
p4061
F0.01948051948051948
tp4062
a(VZu
p4063
F0.0021645021645021645
tp4064
a(VDT
p4065
F0.08008658008658008
tp4066
a(VCD
p4067
F0.007215007215007215
tp4068
a(VUH
p4069
F0.0021645021645021645
tp4070
a(g40
F14.0
tp4071
a(g42
F31.0
tp4072
a(g44
I27
tp4073
a(g46
I112
tp4074
a(g48
I0
tp4075
a(g50
I0
tp4076
a(g52
I0
tp4077
a(g54
I0
tp4078
a(g56
I6
tp4079
a(g58
I-4
tp4080
a(g60
I79
tp4081
a(g62
I32
tp4082
a(g64
I0
tp4083
a(g66
I25
tp4084
a(g68
I0
tp4085
a(g70
F0.009523809523809525
tp4086
a(g72
F6145.0
tp4087
a(g74
F50.18578643578643
tp4088
a(g76
I1
tp4089
a(g78
I0
tp4090
aa(lp4091
(VMD
p4092
F0.007759456838021339
tp4093
a(g4
F0.08583899127061105
tp4094
a(g20
F0.009699321047526674
tp4095
a(VVBG
p4096
F0.002909796314258002
tp4097
a(g24
F0.03394762366634336
tp4098
a(g12
F0.32250242483026187
tp4099
a(VCC
p4100
F0.020368574199806012
tp4101
a(g6
F0.007759456838021339
tp4102
a(VPRP$
p4103
F0.014548981571290009
tp4104
a(g18
F0.1644034917555771
tp4105
a(g96
F0.0024248302618816685
tp4106
a(VPRP
p4107
F0.029582929194956354
tp4108
a(g10
F0.028612997090203686
tp4109
a(VIN
p4110
F0.13336566440349176
tp4111
a(VWP$
p4112
F0.016488845780795344
tp4113
a(g92
F0.0038797284190106693
tp4114
a(VDT
p4115
F0.07953443258971872
tp4116
a(VCD
p4117
F0.0072744907856450046
tp4118
a(g36
F0.025703200775945685
tp4119
a(VUH
p4120
F0.0033947623666343357
tp4121
a(g40
F7.0
tp4122
a(g42
F50.0
tp4123
a(g44
I46
tp4124
a(g46
I25
tp4125
a(g48
I0
tp4126
a(g50
I0
tp4127
a(g52
I0
tp4128
a(g54
I0
tp4129
a(g56
I4
tp4130
a(g58
I3
tp4131
a(g60
I93
tp4132
a(g62
I66
tp4133
a(g64
I9
tp4134
a(g66
I41
tp4135
a(g68
I0
tp4136
a(g70
F0.007751937984496124
tp4137
a(g72
F9404.0
tp4138
a(g74
F50.204170708050434
tp4139
a(g76
I0
tp4140
a(g78
I0
tp4141
aa(lp4142
(VMD
p4143
F0.012127894156560088
tp4144
a(g4
F0.08434399117971333
tp4145
a(g20
F0.037486218302094816
tp4146
a(VVBG
p4147
F0.002205071664829107
tp4148
a(g10
F0.0402425578831312
tp4149
a(g12
F0.3676957001102536
tp4150
a(VCC
p4151
F0.010474090407938258
tp4152
a(g6
F0.006063947078280044
tp4153
a(g36
F0.022601984564498346
tp4154
a(g18
F0.11742006615214995
tp4155
a(VPRP$
p4156
F0.004961411245865491
tp4157
a(VPRP
p4158
F0.011576626240352812
tp4159
a(g24
F0.024807056229327454
tp4160
a(VIN
p4161
F0.13836824696802646
tp4162
a(VWP$
p4163
F0.008820286659316428
tp4164
a(VDT
p4165
F0.09922822491730982
tp4166
a(VCD
p4167
F0.011576626240352812
tp4168
a(g40
F11.0
tp4169
a(g42
F57.0
tp4170
a(g44
I10
tp4171
a(g46
I3
tp4172
a(g48
I0
tp4173
a(g50
I0
tp4174
a(g52
I0
tp4175
a(g54
I0
tp4176
a(g56
I0
tp4177
a(g58
I0
tp4178
a(g60
I98
tp4179
a(g62
I52
tp4180
a(g64
I0
tp4181
a(g66
I45
tp4182
a(g68
I0
tp4183
a(g70
F0.009708737864077669
tp4184
a(g72
F8585.0
tp4185
a(g74
F50.26130099228225
tp4186
a(g76
I1
tp4187
a(g78
I0
tp4188
aa(lp4189
(VMD
p4190
F0.005076142131979695
tp4191
a(g4
F0.1065989847715736
tp4192
a(g6
F0.0012690355329949238
tp4193
a(VVBG
p4194
F0.0038071065989847717
tp4195
a(g10
F0.02284263959390863
tp4196
a(g12
F0.3102791878172589
tp4197
a(VCC
p4198
F0.020939086294416244
tp4199
a(g92
F0.0025380710659898475
tp4200
a(g36
F0.03236040609137056
tp4201
a(VCD
p4202
F0.018401015228426396
tp4203
a(VPRP$
p4204
F0.0031725888324873096
tp4205
a(g96
F0.0019035532994923859
tp4206
a(g20
F0.00951776649746193
tp4207
a(VPRP
p4208
F0.03807106598984772
tp4209
a(g24
F0.04251269035532995
tp4210
a(VIN
p4211
F0.12753807106598986
tp4212
a(VWP$
p4213
F0.014593908629441625
tp4214
a(VZu
p4215
F0.0006345177664974619
tp4216
a(VDT
p4217
F0.09200507614213198
tp4218
a(g18
F0.1446700507614213
tp4219
a(VUH
p4220
F0.0012690355329949238
tp4221
a(g40
F7.0
tp4222
a(g42
F10.0
tp4223
a(g44
I21
tp4224
a(g46
I13
tp4225
a(g48
I0
tp4226
a(g50
I0
tp4227
a(g52
I0
tp4228
a(g54
I0
tp4229
a(g56
I41
tp4230
a(g58
I17
tp4231
a(g60
I99
tp4232
a(g62
I19
tp4233
a(g64
I0
tp4234
a(g66
I4
tp4235
a(g68
I0
tp4236
a(g70
F0.00980392156862745
tp4237
a(g72
F6007.0
tp4238
a(g74
F50.18020304568528
tp4239
a(g76
I0
tp4240
a(g78
I0
tp4241
aa(lp4242
(VMD
p4243
F0.005418422636965683
tp4244
a(g4
F0.07947019867549669
tp4245
a(g20
F0.012642986152919929
tp4246
a(VVBG
p4247
F0.001806140878988561
tp4248
a(g24
F0.04334738109572547
tp4249
a(g12
F0.4449127031908489
tp4250
a(g96
F0.004214328717639976
tp4251
a(g92
F0.003612281757977122
tp4252
a(g36
F0.01926550270921132
tp4253
a(g18
F0.11739915713425647
tp4254
a(VPRP$
p4255
F0.0006020469596628537
tp4256
a(VCC
p4257
F0.011438892233594221
tp4258
a(g6
F0.002408187838651415
tp4259
a(VPRP
p4260
F0.021673690547862733
tp4261
a(g10
F0.021673690547862733
tp4262
a(VIN
p4263
F0.09993979530403371
tp4264
a(VWP$
p4265
F0.02107164358819988
tp4266
a(VDT
p4267
F0.07826610475617098
tp4268
a(VCD
p4269
F0.005418422636965683
tp4270
a(VUH
p4271
F0.005418422636965683
tp4272
a(g40
F8.0
tp4273
a(g42
F26.0
tp4274
a(g44
I35
tp4275
a(g46
I23
tp4276
a(g48
I0
tp4277
a(g50
I0
tp4278
a(g52
I0
tp4279
a(g54
I0
tp4280
a(g56
I10
tp4281
a(g58
I4
tp4282
a(g60
I52
tp4283
a(g62
I7
tp4284
a(g64
I3
tp4285
a(g66
I6
tp4286
a(g68
I0
tp4287
a(g70
F0.009708737864077669
tp4288
a(g72
F6688.0
tp4289
a(g74
F50.24653822998194
tp4290
a(g76
I0
tp4291
a(g78
I0
tp4292
aa(lp4293
(VMD
p4294
F0.010165184243964422
tp4295
a(g4
F0.09529860228716645
tp4296
a(g20
F0.021601016518424398
tp4297
a(VVBG
p4298
F0.0063532401524777635
tp4299
a(g24
F0.03875476493011436
tp4300
a(g12
F0.2935196950444727
tp4301
a(VCC
p4302
F0.026683608640406607
tp4303
a(g92
F0.0006353240152477764
tp4304
a(g36
F0.020330368487928845
tp4305
a(g18
F0.1473951715374841
tp4306
a(VPRP$
p4307
F0.012706480304955527
tp4308
a(g96
F0.0006353240152477764
tp4309
a(VCD
p4310
F0.01207115628970775
tp4311
a(VPRP
p4312
F0.042566709021601014
tp4313
a(g10
F0.033672172808132145
tp4314
a(VIN
p4315
F0.1156289707750953
tp4316
a(VWP$
p4317
F0.019695044472681066
tp4318
a(VDT
p4319
F0.08958068614993647
tp4320
a(g6
F0.008259212198221092
tp4321
a(VUH
p4322
F0.0044472681067344345
tp4323
a(g40
F4.0
tp4324
a(g42
F9.0
tp4325
a(g44
I36
tp4326
a(g46
I14
tp4327
a(g48
I0
tp4328
a(g50
I0
tp4329
a(g52
I0
tp4330
a(g54
I0
tp4331
a(g56
I0
tp4332
a(g58
I0
tp4333
a(g60
I63
tp4334
a(g62
I0
tp4335
a(g64
I0
tp4336
a(g66
I4
tp4337
a(g68
I0
tp4338
a(g70
F0.009900990099009901
tp4339
a(g72
F6173.0
tp4340
a(g74
F50.17249047013977
tp4341
a(g76
I0
tp4342
a(g78
I0
tp4343
aa(lp4344
(VMD
p4345
F0.010250569476082005
tp4346
a(g4
F0.09054669703872438
tp4347
a(g6
F0.0028473804100227792
tp4348
a(VVBG
p4349
F0.005125284738041002
tp4350
a(g24
F0.038154897494305236
tp4351
a(g12
F0.30637813211845105
tp4352
a(VCC
p4353
F0.019931662870159454
tp4354
a(g92
F0.0005694760820045558
tp4355
a(VPRP$
p4356
F0.006264236902050114
tp4357
a(g18
F0.18052391799544418
tp4358
a(g96
F0.0017084282460136675
tp4359
a(g20
F0.011958997722095672
tp4360
a(VUH
p4361
F0.0005694760820045558
tp4362
a(g10
F0.03018223234624146
tp4363
a(VIN
p4364
F0.12414578587699317
tp4365
a(VWP$
p4366
F0.022779043280182234
tp4367
a(VDT
p4368
F0.07801822323462415
tp4369
a(VCD
p4370
F0.010250569476082005
tp4371
a(g36
F0.02050113895216401
tp4372
a(VPRP
p4373
F0.03929384965831435
tp4374
a(g40
F11.0
tp4375
a(g42
F27.0
tp4376
a(g44
I78
tp4377
a(g46
I42
tp4378
a(g48
I0
tp4379
a(g50
I0
tp4380
a(g52
I0
tp4381
a(g54
I0
tp4382
a(g56
I2
tp4383
a(g58
I1
tp4384
a(g60
I111
tp4385
a(g62
I15
tp4386
a(g64
I0
tp4387
a(g66
I10
tp4388
a(g68
I0
tp4389
a(g70
F0.009900990099009901
tp4390
a(g72
F7125.0
tp4391
a(g74
F50.18251708428246
tp4392
a(g76
I0
tp4393
a(g78
I0
tp4394
aa(lp4395
(VMD
p4396
F0.010700909577314071
tp4397
a(g4
F0.0743713215623328
tp4398
a(g20
F0.01819154628143392
tp4399
a(VVBG
p4400
F0.002675227394328518
tp4401
a(g24
F0.020331728196896735
tp4402
a(g12
F0.4055644729802033
tp4403
a(VCC
p4404
F0.012306046013911182
tp4405
a(g92
F0.0005350454788657035
tp4406
a(g36
F0.021401819154628143
tp4407
a(g18
F0.12520064205457465
tp4408
a(VPRP$
p4409
F0.002140181915462814
tp4410
a(g96
F0.0016051364365971107
tp4411
a(VCD
p4412
F0.01658640984483681
tp4413
a(VPRP
p4414
F0.012841091492776886
tp4415
a(g10
F0.04226859283039058
tp4416
a(VIN
p4417
F0.11449973247726057
tp4418
a(VWP$
p4419
F0.010700909577314071
tp4420
a(VZu
p4421
F0.001070090957731407
tp4422
a(VDT
p4423
F0.09042268592830391
tp4424
a(g6
F0.01658640984483681
tp4425
a(g40
F19.0
tp4426
a(g42
F86.0
tp4427
a(g44
I30
tp4428
a(g46
I8
tp4429
a(g48
I0
tp4430
a(g50
I0
tp4431
a(g52
I0
tp4432
a(g54
I0
tp4433
a(g56
I2
tp4434
a(g58
I1
tp4435
a(g60
I72
tp4436
a(g62
I80
tp4437
a(g64
I13
tp4438
a(g66
I75
tp4439
a(g68
I0
tp4440
a(g70
F0.009900990099009901
tp4441
a(g72
F9464.0
tp4442
a(g74
F50.27126805778491
tp4443
a(g76
I0
tp4444
a(g78
I0
tp4445
aa(lp4446
(VMD
p4447
F0.009592326139088728
tp4448
a(g4
F0.10311750599520383
tp4449
a(g20
F0.023980815347721823
tp4450
a(VVBG
p4451
F0.0031974420463629096
tp4452
a(g10
F0.02717825739408473
tp4453
a(g12
F0.2533972821742606
tp4454
a(VCC
p4455
F0.019984012789768184
tp4456
a(g92
F0.005595523581135092
tp4457
a(g36
F0.03117505995203837
tp4458
a(g18
F0.23101518784972022
tp4459
a(g96
F0.004796163069544364
tp4460
a(VCD
p4461
F0.002398081534772182
tp4462
a(g6
F0.0031974420463629096
tp4463
a(VPRP
p4464
F0.04636290967226219
tp4465
a(g24
F0.042366107114308556
tp4466
a(VIN
p4467
F0.09432454036770584
tp4468
a(VWP$
p4469
F0.012789768185451638
tp4470
a(VDT
p4471
F0.07354116706634692
tp4472
a(VPRP$
p4473
F0.010391686650679457
tp4474
a(VUH
p4475
F0.0015987210231814548
tp4476
a(g40
F0.0
tp4477
a(g42
F8.0
tp4478
a(g44
I3
tp4479
a(g46
I147
tp4480
a(g48
I0
tp4481
a(g50
I0
tp4482
a(g52
I0
tp4483
a(g54
I0
tp4484
a(g56
I10
tp4485
a(g58
I4
tp4486
a(g60
I58
tp4487
a(g62
I4
tp4488
a(g64
I0
tp4489
a(g66
I5
tp4490
a(g68
I0
tp4491
a(g70
F0.009523809523809525
tp4492
a(g72
F4482.0
tp4493
a(g74
F50.12589928057554
tp4494
a(g76
I0
tp4495
a(g78
I0
tp4496
aa(lp4497
(VMD
p4498
F0.01648936170212766
tp4499
a(g4
F0.11063829787234042
tp4500
a(g20
F0.006382978723404255
tp4501
a(VVBG
p4502
F0.0047872340425531915
tp4503
a(g24
F0.043617021276595745
tp4504
a(g12
F0.30531914893617024
tp4505
a(VCC
p4506
F0.03297872340425532
tp4507
a(g92
F0.0005319148936170213
tp4508
a(VPRP$
p4509
F0.009574468085106383
tp4510
a(g18
F0.08936170212765958
tp4511
a(g96
F0.0005319148936170213
tp4512
a(g6
F0.0031914893617021275
tp4513
a(VPRP
p4514
F0.03563829787234043
tp4515
a(g10
F0.04414893617021277
tp4516
a(VIN
p4517
F0.13670212765957446
tp4518
a(VWP$
p4519
F0.01276595744680851
tp4520
a(VZu
p4521
F0.0005319148936170213
tp4522
a(VDT
p4523
F0.09946808510638298
tp4524
a(VCD
p4525
F0.01223404255319149
tp4526
a(g36
F0.034574468085106384
tp4527
a(VUH
p4528
F0.0005319148936170213
tp4529
a(g40
F16.0
tp4530
a(g42
F15.0
tp4531
a(g44
I1
tp4532
a(g46
I10
tp4533
a(g48
I0
tp4534
a(g50
I0
tp4535
a(g52
I0
tp4536
a(g54
I0
tp4537
a(g56
I5
tp4538
a(g58
I5
tp4539
a(g60
I87
tp4540
a(g62
I16
tp4541
a(g64
I0
tp4542
a(g66
I13
tp4543
a(g68
I0
tp4544
a(g70
F0.009900990099009901
tp4545
a(g72
F8260.0
tp4546
a(g74
F50.19521276595745
tp4547
a(g76
I0
tp4548
a(g78
I0
tp4549
aa(lp4550
(VMD
p4551
F0.0022036139268400176
tp4552
a(g4
F0.06963420008814455
tp4553
a(g20
F0.06566769501983252
tp4554
a(VVBG
p4555
F0.0022036139268400176
tp4556
a(g10
F0.0251211987659762
tp4557
a(g12
F0.32966064345526663
tp4558
a(VCC
p4559
F0.017188188629352136
tp4560
a(g92
F0.0013221683561040105
tp4561
a(VPRP$
p4562
F0.009695901278096077
tp4563
a(g18
F0.21419127368884971
tp4564
a(g96
F0.0013221683561040105
tp4565
a(VCD
p4566
F0.007933010136624064
tp4567
a(VPRP
p4568
F0.026443367122080213
tp4569
a(g24
F0.03305420890260027
tp4570
a(VIN
p4571
F0.07007492287351257
tp4572
a(VWP$
p4573
F0.009255178492728075
tp4574
a(VZu
p4575
F0.0008814455707360071
tp4576
a(VDT
p4577
F0.06170118995152049
tp4578
a(g6
F0.031732040546496254
tp4579
a(g36
F0.020713970912296167
tp4580
a(g40
F12.0
tp4581
a(g42
F76.0
tp4582
a(g44
I98
tp4583
a(g46
I115
tp4584
a(g48
I0
tp4585
a(g50
I0
tp4586
a(g52
I0
tp4587
a(g54
I0
tp4588
a(g56
I2
tp4589
a(g58
I2
tp4590
a(g60
I168
tp4591
a(g62
I30
tp4592
a(g64
I0
tp4593
a(g66
I43
tp4594
a(g68
I0
tp4595
a(g70
F0.009345794392523364
tp4596
a(g72
F9133.0
tp4597
a(g74
F50.17761128250331
tp4598
a(g76
I3
tp4599
a(g78
I0
tp4600
aa(lp4601
(VMD
p4602
F0.004286589099816289
tp4603
a(g4
F0.065523576240049
tp4604
a(g20
F0.009185548071034905
tp4605
a(VVBG
p4606
F0.005511328842620943
tp4607
a(g10
F0.027556644213104716
tp4608
a(g12
F0.3368034292712799
tp4609
a(VCC
p4610
F0.018983466013472138
tp4611
a(g92
F0.001837109614206981
tp4612
a(VPRP$
p4613
F0.00612369871402327
tp4614
a(g18
F0.2271892222902633
tp4615
a(g96
F0.001224739742804654
tp4616
a(VCD
p4617
F0.006736068585425597
tp4618
a(VPRP
p4619
F0.030006123698714023
tp4620
a(g24
F0.03490508266993264
tp4621
a(VIN
p4622
F0.1065523576240049
tp4623
a(VWP$
p4624
F0.015921616656460504
tp4625
a(VZu
p4626
F0.004898958971218616
tp4627
a(VDT
p4628
F0.07960808328230251
tp4629
a(g6
F0.010410287813839559
tp4630
a(g36
F0.006736068585425597
tp4631
a(g40
F15.0
tp4632
a(g42
F35.0
tp4633
a(g44
I52
tp4634
a(g46
I30
tp4635
a(g48
I0
tp4636
a(g50
I0
tp4637
a(g52
I0
tp4638
a(g54
I0
tp4639
a(g56
I2
tp4640
a(g58
I0
tp4641
a(g60
I115
tp4642
a(g62
I52
tp4643
a(g64
I1
tp4644
a(g66
I26
tp4645
a(g68
I0
tp4646
a(g70
F0.00847457627118644
tp4647
a(g72
F6927.0
tp4648
a(g74
F50.20728720146969
tp4649
a(g76
I0
tp4650
a(g78
I0
tp4651
aa(lp4652
(VMD
p4653
F0.0109204368174727
tp4654
a(g4
F0.11388455538221529
tp4655
a(g20
F0.0265210608424337
tp4656
a(VVBG
p4657
F0.0039001560062402497
tp4658
a(g10
F0.035101404056162244
tp4659
a(g12
F0.31357254290171604
tp4660
a(VCC
p4661
F0.0187207488299532
tp4662
a(g92
F0.0015600624024961
tp4663
a(g36
F0.01638065522620905
tp4664
a(g18
F0.15132605304212168
tp4665
a(VPRP$
p4666
F0.00858034321372855
tp4667
a(g96
F0.00078003120124805
tp4668
a(VCD
p4669
F0.0062402496099844
tp4670
a(VPRP
p4671
F0.039781591263650544
tp4672
a(g24
F0.046021840873634944
tp4673
a(VIN
p4674
F0.09906396255850235
tp4675
a(VWP$
p4676
F0.0218408736349454
tp4677
a(VDT
p4678
F0.07878315132605304
tp4679
a(g6
F0.00546021840873635
tp4680
a(VUH
p4681
F0.0015600624024961
tp4682
a(g40
F23.0
tp4683
a(g42
F19.0
tp4684
a(g44
I13
tp4685
a(g46
I21
tp4686
a(g48
I0
tp4687
a(g50
I0
tp4688
a(g52
I1
tp4689
a(g54
I0
tp4690
a(g56
I14
tp4691
a(g58
I2
tp4692
a(g60
I40
tp4693
a(g62
I14
tp4694
a(g64
I0
tp4695
a(g66
I5
tp4696
a(g68
I0
tp4697
a(g70
F0.009900990099009901
tp4698
a(g72
F4997.0
tp4699
a(g74
F50.1606864274571
tp4700
a(g76
I0
tp4701
a(g78
I0
tp4702
aa(lp4703
(VMD
p4704
F0.011741682974559686
tp4705
a(g4
F0.1012720156555773
tp4706
a(g6
F0.01223091976516634
tp4707
a(VVBG
p4708
F0.004403131115459882
tp4709
a(g10
F0.036203522504892366
tp4710
a(g12
F0.2656555772994129
tp4711
a(g96
F0.0009784735812133072
tp4712
a(VCC
p4713
F0.034735812133072405
tp4714
a(g92
F0.0053816046966731895
tp4715
a(g36
F0.03424657534246575
tp4716
a(VCD
p4717
F0.008806262230919765
tp4718
a(g18
F0.13307240704500978
tp4719
a(g20
F0.01761252446183953
tp4720
a(VPRP
p4721
F0.05332681017612524
tp4722
a(g24
F0.05185909980430528
tp4723
a(VIN
p4724
F0.11056751467710371
tp4725
a(VWP$
p4726
F0.019569471624266144
tp4727
a(VDT
p4728
F0.09099804305283757
tp4729
a(VPRP$
p4730
F0.00684931506849315
tp4731
a(VUH
p4732
F0.0004892367906066536
tp4733
a(g40
F10.0
tp4734
a(g42
F43.0
tp4735
a(g44
I28
tp4736
a(g46
I18
tp4737
a(g48
I0
tp4738
a(g50
I4
tp4739
a(g52
I0
tp4740
a(g54
I0
tp4741
a(g56
I16
tp4742
a(g58
I12
tp4743
a(g60
I106
tp4744
a(g62
I11
tp4745
a(g64
I0
tp4746
a(g66
I11
tp4747
a(g68
I0
tp4748
a(g70
F0.009900990099009901
tp4749
a(g72
F8228.0
tp4750
a(g74
F50.146037181996086
tp4751
a(g76
I0
tp4752
a(g78
I0
tp4753
aa(lp4754
(VMD
p4755
F0.003482298316889147
tp4756
a(g4
F0.1154962275101567
tp4757
a(g20
F0.030179918746372606
tp4758
a(VVBG
p4759
F0.0023215322112594312
tp4760
a(g10
F0.04759141033081834
tp4761
a(g12
F0.3052814857806152
tp4762
a(VCC
p4763
F0.023215322112594312
tp4764
a(g92
F0.004062681369704005
tp4765
a(g36
F0.028438769587928032
tp4766
a(g18
F0.08589669181659895
tp4767
a(VPRP$
p4768
F0.01567034242600116
tp4769
a(g96
F0.004062681369704005
tp4770
a(VCD
p4771
F0.009286128845037725
tp4772
a(VPRP
p4773
F0.04526987811955891
tp4774
a(g24
F0.05107370864770749
tp4775
a(VIN
p4776
F0.1114335461404527
tp4777
a(VWP$
p4778
F0.020313406848520024
tp4779
a(VZu
p4780
F0.0005803830528148578
tp4781
a(VDT
p4782
F0.0812536273940801
tp4783
a(g6
F0.015089959373186303
tp4784
a(g40
F6.0
tp4785
a(g42
F65.0
tp4786
a(g44
I23
tp4787
a(g46
I7
tp4788
a(g48
I0
tp4789
a(g50
I0
tp4790
a(g52
I0
tp4791
a(g54
I0
tp4792
a(g56
I12
tp4793
a(g58
I-6
tp4794
a(g60
I49
tp4795
a(g62
I17
tp4796
a(g64
I0
tp4797
a(g66
I51
tp4798
a(g68
I0
tp4799
a(g70
F0.00980392156862745
tp4800
a(g72
F7791.0
tp4801
a(g74
F50.16569936157864
tp4802
a(g76
I2
tp4803
a(g78
I1
tp4804
aa(lp4805
(VMD
p4806
F0.02113113735239279
tp4807
a(g4
F0.11622125543816035
tp4808
a(g20
F0.013673088875077687
tp4809
a(VVBG
p4810
F0.00870105655686762
tp4811
a(g24
F0.0435052827843381
tp4812
a(g12
F0.2970789310130516
tp4813
a(VCC
p4814
F0.024238657551274082
tp4815
a(g92
F0.0018645121193287756
tp4816
a(g36
F0.031075201988812928
tp4817
a(g18
F0.10752019888129273
tp4818
a(VPRP$
p4819
F0.011187072715972654
tp4820
a(g96
F0.0018645121193287756
tp4821
a(VCD
p4822
F0.010565568676196395
tp4823
a(VPRP
p4824
F0.039776258545680544
tp4825
a(g10
F0.02113113735239279
tp4826
a(VIN
p4827
F0.13424487259167184
tp4828
a(VWP$
p4829
F0.019266625233064015
tp4830
a(VZu
p4831
F0.0018645121193287756
tp4832
a(VDT
p4833
F0.08949658172778123
tp4834
a(g6
F0.004972032318210068
tp4835
a(VUH
p4836
F0.0006215040397762585
tp4837
a(g40
F41.0
tp4838
a(g42
F28.0
tp4839
a(g44
I0
tp4840
a(g46
I10
tp4841
a(g48
I0
tp4842
a(g50
I0
tp4843
a(g52
I0
tp4844
a(g54
I0
tp4845
a(g56
I17
tp4846
a(g58
I15
tp4847
a(g60
I42
tp4848
a(g62
I20
tp4849
a(g64
I0
tp4850
a(g66
I17
tp4851
a(g68
I0
tp4852
a(g70
F0.008849557522123894
tp4853
a(g72
F6594.0
tp4854
a(g74
F50.16656308266004
tp4855
a(g76
I2
tp4856
a(g78
I0
tp4857
aa(lp4858
(VMD
p4859
F0.0054466230936819175
tp4860
a(VPRP$
p4861
F0.021241830065359478
tp4862
a(g20
F0.0010893246187363835
tp4863
a(VVBG
p4864
F0.002178649237472767
tp4865
a(g10
F0.04302832244008715
tp4866
a(g12
F0.3480392156862745
tp4867
a(VCC
p4868
F0.02178649237472767
tp4869
a(g92
F0.006535947712418301
tp4870
a(g36
F0.041938997821350764
tp4871
a(g18
F0.06699346405228758
tp4872
a(g4
F0.08278867102396514
tp4873
a(g96
F0.006535947712418301
tp4874
a(VCD
p4875
F0.009259259259259259
tp4876
a(VPRP
p4877
F0.016339869281045753
tp4878
a(g24
F0.029411764705882353
tp4879
a(VIN
p4880
F0.16122004357298475
tp4881
a(VWP$
p4882
F0.016884531590413945
tp4883
a(VDT
p4884
F0.11601307189542484
tp4885
a(g6
F0.0032679738562091504
tp4886
a(g40
F6.0
tp4887
a(g42
F44.0
tp4888
a(g44
I6
tp4889
a(g46
I0
tp4890
a(g48
I0
tp4891
a(g50
I0
tp4892
a(g52
I0
tp4893
a(g54
I0
tp4894
a(g56
I0
tp4895
a(g58
I0
tp4896
a(g60
I35
tp4897
a(g62
I6
tp4898
a(g64
I0
tp4899
a(g66
I44
tp4900
a(g68
I0
tp4901
a(g70
F0.009900990099009901
tp4902
a(g72
F9169.0
tp4903
a(g74
F50.2687908496732
tp4904
a(g76
I2
tp4905
a(g78
I0
tp4906
aa(lp4907
(VZu
p4908
F0.0011648223645894002
tp4909
a(VMD
p4910
F0.007571345369831101
tp4911
a(g4
F0.07454863133372161
tp4912
a(g20
F0.033197437390797904
tp4913
a(VVBG
p4914
F0.0023296447291788003
tp4915
a(g24
F0.0361094933022714
tp4916
a(g12
F0.3628421665695981
tp4917
a(VCC
p4918
F0.0128130460104834
tp4919
a(g6
F0.005824111822947
tp4920
a(g36
F0.0157251019219569
tp4921
a(g18
F0.1793826441467676
tp4922
a(g96
F0.0005824111822947001
tp4923
a(VCD
p4924
F0.007571345369831101
tp4925
a(VPRP
p4926
F0.0244612696563774
tp4927
a(g10
F0.030285381479324403
tp4928
a(VIN
p4929
F0.1100757134536983
tp4930
a(VWP$
p4931
F0.009900990099009901
tp4932
a(g92
F0.0005824111822947001
tp4933
a(VDT
p4934
F0.07338380896913221
tp4935
a(VPRP$
p4936
F0.010483401281304601
tp4937
a(VUH
p4938
F0.0011648223645894002
tp4939
a(g40
F9.0
tp4940
a(g42
F27.0
tp4941
a(g44
I81
tp4942
a(g46
I11
tp4943
a(g48
I0
tp4944
a(g50
I0
tp4945
a(g52
I0
tp4946
a(g54
I0
tp4947
a(g56
I36
tp4948
a(g58
I28
tp4949
a(g60
I138
tp4950
a(g62
I45
tp4951
a(g64
I22
tp4952
a(g66
I25
tp4953
a(g68
I0
tp4954
a(g70
F0.009900990099009901
tp4955
a(g72
F7568.0
tp4956
a(g74
F50.218986604542806
tp4957
a(g76
I0
tp4958
a(g78
I0
tp4959
aa(lp4960
(VMD
p4961
F0.0026613439787092482
tp4962
a(g4
F0.08117099135063206
tp4963
a(g20
F0.024617431803060547
tp4964
a(VVBG
p4965
F0.001996007984031936
tp4966
a(g10
F0.039254823685961414
tp4967
a(g12
F0.3499667332002661
tp4968
a(g96
F0.007318695941450432
tp4969
a(g92
F0.007318695941450432
tp4970
a(g36
F0.02594810379241517
tp4971
a(g18
F0.10645375914836992
tp4972
a(VCC
p4973
F0.02262142381902861
tp4974
a(VCD
p4975
F0.004657351962741184
tp4976
a(g6
F0.011976047904191617
tp4977
a(VPRP
p4978
F0.04258150365934797
tp4979
a(g24
F0.03260146373918829
tp4980
a(VIN
p4981
F0.11510312707917499
tp4982
a(VWP$
p4983
F0.01996007984031936
tp4984
a(VDT
p4985
F0.08316699933466401
tp4986
a(VPRP$
p4987
F0.020625415834996674
tp4988
a(g40
F5.0
tp4989
a(g42
F82.0
tp4990
a(g44
I48
tp4991
a(g46
I15
tp4992
a(g48
I0
tp4993
a(g50
I0
tp4994
a(g52
I2
tp4995
a(g54
I0
tp4996
a(g56
I15
tp4997
a(g58
I4
tp4998
a(g60
I57
tp4999
a(g62
I12
tp5000
a(g64
I1
tp5001
a(g66
I65
tp5002
a(g68
I0
tp5003
a(g70
F0.009900990099009901
tp5004
a(g72
F6786.0
tp5005
a(g74
F50.21457085828343
tp5006
a(g76
I0
tp5007
a(g78
I2
tp5008
aa(lp5009
(VMD
p5010
F0.006119951040391677
tp5011
a(g4
F0.08751529987760098
tp5012
a(g6
F0.008567931456548347
tp5013
a(VVBG
p5014
F0.0030599755201958386
tp5015
a(g24
F0.031211750305997554
tp5016
a(g12
F0.3580171358629131
tp5017
a(VCC
p5018
F0.01835985312117503
tp5019
a(g92
F0.00795593635250918
tp5020
a(VPRP$
p5021
F0.012851897184822521
tp5022
a(VCD
p5023
F0.01591187270501836
tp5024
a(g96
F0.00795593635250918
tp5025
a(g20
F0.014687882496940025
tp5026
a(VPRP
p5027
F0.0208078335373317
tp5028
a(g10
F0.04222766217870257
tp5029
a(VIN
p5030
F0.10771113831089352
tp5031
a(VWP$
p5032
F0.016523867809057527
tp5033
a(VZu
p5034
F0.0012239902080783353
tp5035
a(VDT
p5036
F0.07037943696450429
tp5037
a(g18
F0.14137086903304774
tp5038
a(g36
F0.025703794369645042
tp5039
a(VUH
p5040
F0.0018359853121175031
tp5041
a(g40
F17.0
tp5042
a(g42
F54.0
tp5043
a(g44
I23
tp5044
a(g46
I30
tp5045
a(g48
I0
tp5046
a(g50
I0
tp5047
a(g52
I1
tp5048
a(g54
I0
tp5049
a(g56
I22
tp5050
a(g58
I3
tp5051
a(g60
I92
tp5052
a(g62
I21
tp5053
a(g64
I5
tp5054
a(g66
I44
tp5055
a(g68
I0
tp5056
a(g70
F0.00980392156862745
tp5057
a(g72
F7447.0
tp5058
a(g74
F50.21695226438189
tp5059
a(g76
I0
tp5060
a(g78
I0
tp5061
aa(lp5062
(VZu
p5063
F0.0018018018018018018
tp5064
a(VMD
p5065
F0.0024024024024024023
tp5066
a(g4
F0.07267267267267268
tp5067
a(g20
F0.006606606606606606
tp5068
a(VVBG
p5069
F0.004204204204204204
tp5070
a(g10
F0.04024024024024024
tp5071
a(g12
F0.45585585585585586
tp5072
a(VCC
p5073
F0.016216216216216217
tp5074
a(g6
F0.006006006006006006
tp5075
a(g36
F0.03063063063063063
tp5076
a(VCD
p5077
F0.016216216216216217
tp5078
a(VPRP$
p5079
F0.004804804804804805
tp5080
a(g96
F0.01981981981981982
tp5081
a(VPRP
p5082
F0.02042042042042042
tp5083
a(g24
F0.016816816816816817
tp5084
a(VIN
p5085
F0.0990990990990991
tp5086
a(VWP$
p5087
F0.009009009009009009
tp5088
a(g92
F0.01981981981981982
tp5089
a(VDT
p5090
F0.06846846846846846
tp5091
a(g18
F0.08828828828828829
tp5092
a(VUH
p5093
F0.0006006006006006006
tp5094
a(g40
F23.0
tp5095
a(g42
F71.0
tp5096
a(g44
I13
tp5097
a(g46
I15
tp5098
a(g48
I0
tp5099
a(g50
I0
tp5100
a(g52
I1
tp5101
a(g54
I0
tp5102
a(g56
I4
tp5103
a(g58
I1
tp5104
a(g60
I60
tp5105
a(g62
I44
tp5106
a(g64
I1
tp5107
a(g66
I54
tp5108
a(g68
I0
tp5109
a(g70
F0.00980392156862745
tp5110
a(g72
F7775.0
tp5111
a(g74
F50.274474474474474
tp5112
a(g76
I0
tp5113
a(g78
I0
tp5114
aa.