(lp0
S'18-24'
p1
aS'50-XX'
p2
aS'35-49'
p3
aS'25-34'
p4
aS'18-24'
p5
aS'50-XX'
p6
aS'25-34'
p7
aS'18-24'
p8
aS'35-49'
p9
aS'18-24'
p10
aS'50-XX'
p11
aS'50-XX'
p12
aS'18-24'
p13
aS'25-34'
p14
aS'25-34'
p15
aS'25-34'
p16
aS'50-XX'
p17
aS'25-34'
p18
aS'18-24'
p19
aS'35-49'
p20
aS'18-24'
p21
aS'25-34'
p22
aS'25-34'
p23
aS'25-34'
p24
aS'18-24'
p25
aS'25-34'
p26
aS'25-34'
p27
aS'18-24'
p28
aS'25-34'
p29
aS'25-34'
p30
aS'25-34'
p31
aS'18-24'
p32
aS'18-24'
p33
aS'18-24'
p34
aS'25-34'
p35
aS'25-34'
p36
aS'25-34'
p37
aS'25-34'
p38
aS'25-34'
p39
aS'18-24'
p40
aS'25-34'
p41
aS'35-49'
p42
aS'18-24'
p43
aS'18-24'
p44
aS'18-24'
p45
aS'25-34'
p46
aS'25-34'
p47
aS'18-24'
p48
aS'25-34'
p49
aS'18-24'
p50
aS'18-24'
p51
aS'35-49'
p52
aS'50-XX'
p53
aS'35-49'
p54
aS'18-24'
p55
aS'35-49'
p56
aS'25-34'
p57
aS'25-34'
p58
aS'35-49'
p59
aS'25-34'
p60
aS'25-34'
p61
aS'18-24'
p62
aS'18-24'
p63
aS'25-34'
p64
aS'25-34'
p65
aS'18-24'
p66
aS'25-34'
p67
aS'18-24'
p68
aS'18-24'
p69
aS'35-49'
p70
aS'35-49'
p71
aS'25-34'
p72
aS'50-XX'
p73
aS'25-34'
p74
aS'18-24'
p75
aS'35-49'
p76
aS'18-24'
p77
aS'35-49'
p78
aS'18-24'
p79
aS'25-34'
p80
aS'18-24'
p81
aS'25-34'
p82
aS'25-34'
p83
aS'25-34'
p84
aS'18-24'
p85
aS'18-24'
p86
aS'18-24'
p87
aS'25-34'
p88
aS'25-34'
p89
aS'25-34'
p90
aS'18-24'
p91
aS'18-24'
p92
aS'18-24'
p93
aS'18-24'
p94
aS'18-24'
p95
aS'25-34'
p96
aS'35-49'
p97
aS'18-24'
p98
aS'25-34'
p99
aS'25-34'
p100
aS'18-24'
p101
aS'18-24'
p102
aS'35-49'
p103
aS'25-34'
p104
aS'18-24'
p105
aS'35-49'
p106
aS'18-24'
p107
aS'35-49'
p108
aS'35-49'
p109
aS'25-34'
p110
aS'25-34'
p111
aS'35-49'
p112
aS'25-34'
p113
aS'25-34'
p114
aS'25-34'
p115
aS'18-24'
p116
aS'50-XX'
p117
aS'18-24'
p118
aS'35-49'
p119
aS'50-XX'
p120
aS'18-24'
p121
aS'25-34'
p122
aS'18-24'
p123
aS'25-34'
p124
aS'18-24'
p125
aS'18-24'
p126
aS'35-49'
p127
aS'18-24'
p128
aS'25-34'
p129
aS'18-24'
p130
aS'35-49'
p131
aS'18-24'
p132
aS'25-34'
p133
aS'35-49'
p134
aS'18-24'
p135
aS'18-24'
p136
aS'18-24'
p137
aS'25-34'
p138
aS'50-XX'
p139
aS'25-34'
p140
aS'25-34'
p141
aS'18-24'
p142
aS'18-24'
p143
aS'50-XX'
p144
aS'50-XX'
p145
aS'25-34'
p146
aS'25-34'
p147
aS'25-34'
p148
aS'18-24'
p149
aS'25-34'
p150
aS'25-34'
p151
aS'18-24'
p152
a.