(lp0
S'XX-XX'
p1
aS'XX-XX'
p2
aS'XX-XX'
p3
aS'XX-XX'
p4
aS'XX-XX'
p5
aS'XX-XX'
p6
aS'XX-XX'
p7
aS'XX-XX'
p8
aS'XX-XX'
p9
aS'XX-XX'
p10
aS'XX-XX'
p11
aS'XX-XX'
p12
aS'XX-XX'
p13
aS'XX-XX'
p14
aS'XX-XX'
p15
aS'XX-XX'
p16
aS'XX-XX'
p17
aS'XX-XX'
p18
aS'XX-XX'
p19
aS'XX-XX'
p20
aS'XX-XX'
p21
aS'XX-XX'
p22
aS'XX-XX'
p23
aS'XX-XX'
p24
aS'XX-XX'
p25
aS'XX-XX'
p26
aS'XX-XX'
p27
aS'XX-XX'
p28
aS'XX-XX'
p29
aS'XX-XX'
p30
aS'XX-XX'
p31
aS'XX-XX'
p32
aS'XX-XX'
p33
aS'XX-XX'
p34
a.