(lp0
(lp1
(Vadv
p2
F0.07494407158836688
tp3
a(Vverb
p4
F0.11409395973154363
tp5
a(Vfixed
p6
F0.0011185682326621924
tp7
a(Vnoun
p8
F0.2606263982102908
tp9
a(Vvg
p10
F0.016778523489932886
tp11
a(Vcomp
p12
F0.01901565995525727
tp13
a(Vdet
p14
F0.07270693512304251
tp15
a(Vnum
p16
F0.016778523489932886
tp17
a(Vpunct
p18
F0.09731543624161074
tp19
a(S'-None-'
p20
F0.15212527964205816
tp21
a(Vpart
p22
F0.005592841163310962
tp23
a(Vtag
p24
F0.0044742729306487695
tp25
a(Vadj
p26
F0.07494407158836688
tp27
a(Vprep
p28
F0.0894854586129754
tp29
a(S'CAPS'
p30
F8.0
tp31
a(S'ELONGATED'
p32
F91.0
tp33
a(S'!'
p34
I17
tp35
a(S'?'
p36
I6
tp37
a(S'OMG'
p38
I1
tp39
a(S'<3'
p40
I3
tp41
a(S'lol'
p42
I3
tp43
a(S'lmfao'
p44
I0
tp45
a(S'EMOTCOUNT'
p46
I29
tp47
a(S'EMOTSCORE'
p48
I21
tp49
a(S'@COUNT'
p50
I13
tp51
a(S'#COUNT'
p52
I5
tp53
a(S'RT'
p54
I0
tp55
a(S'URL'
p56
I1
tp57
a(S'PIC'
p58
I0
tp59
a(S'TEXTLEN'
p60
F0.00980392156862745
tp61
a(S'WORDLEN'
p62
F3380.0
tp63
a(S'EXTRAV'
p64
F50.0
tp65
a(S'GFCOUNT'
p66
I0
tp67
a(S'BFCOUNT'
p68
I0
tp69
aa(lp70
(Vadv
p71
F0.08382526564344746
tp72
a(Vpp
p73
F0.0023612750885478157
tp74
a(Vfixed
p75
F0.0017709563164108619
tp76
a(Vnoun
p77
F0.22195985832349469
tp78
a(Vvg
p79
F0.009445100354191263
tp80
a(Vcomp
p81
F0.024203069657615112
tp82
a(Vdet
p83
F0.047815820543093274
tp84
a(Vnum
p85
F0.012396694214876033
tp86
a(g18
F0.21192443919716647
tp87
a(g20
F0.16706021251475797
tp88
a(Vverb
p89
F0.11629279811097992
tp90
a(Vcomparative
p91
F0.0005903187721369539
tp92
a(Vpart
p93
F0.0059031877213695395
tp94
a(Vtag
p95
F0.0035419126328217238
tp96
a(Vadj
p97
F0.04309327036599764
tp98
a(Vprep
p99
F0.047815820543093274
tp100
a(g30
F4.0
tp101
a(g32
F161.0
tp102
a(g34
I4
tp103
a(g36
I210
tp104
a(g38
I0
tp105
a(g40
I0
tp106
a(g42
I1
tp107
a(g44
I0
tp108
a(g46
I4
tp109
a(g48
I-4
tp110
a(g50
I73
tp111
a(g52
I1
tp112
a(g54
I3
tp113
a(g56
I3
tp114
a(g58
I0
tp115
a(g60
F0.009523809523809525
tp116
a(g62
F5740.0
tp117
a(g64
F50.0
tp118
a(g66
I0
tp119
a(g68
I5
tp120
aa(lp121
(Vadv
p122
F0.08634772462077013
tp123
a(Vpp
p124
F0.001750291715285881
tp125
a(Vnoun
p126
F0.2555425904317386
tp127
a(Vvg
p128
F0.012252042007001166
tp129
a(Vcomp
p130
F0.024504084014002333
tp131
a(Vdet
p132
F0.051925320886814466
tp133
a(Vnum
p134
F0.008168028004667444
tp135
a(Vpunct
p136
F0.12310385064177364
tp137
a(g20
F0.18844807467911318
tp138
a(Vverb
p139
F0.12718786464410736
tp140
a(Vcomparative
p141
F0.0011668611435239206
tp142
a(Vpart
p143
F0.0011668611435239206
tp144
a(Vfixed
p145
F0.001750291715285881
tp146
a(Vadj
p147
F0.056592765460910154
tp148
a(Vprep
p149
F0.060093348891481914
tp150
a(g30
F13.0
tp151
a(g32
F203.0
tp152
a(g34
I34
tp153
a(g36
I39
tp154
a(g38
I1
tp155
a(g40
I0
tp156
a(g42
I0
tp157
a(g44
I0
tp158
a(g46
I21
tp159
a(g48
I21
tp160
a(g50
I121
tp161
a(g52
I28
tp162
a(g54
I4
tp163
a(g56
I17
tp164
a(g58
I0
tp165
a(g60
F0.00980392156862745
tp166
a(g62
F7363.0
tp167
a(g64
F50.0
tp168
a(g66
I0
tp169
a(g68
I8
tp170
aa(lp171
(Vadv
p172
F0.07794117647058824
tp173
a(Vpp
p174
F0.0014705882352941176
tp175
a(Vnoun
p176
F0.2916666666666667
tp177
a(g79
F0.023529411764705882
tp178
a(Vcomp
p179
F0.03235294117647059
tp180
a(Vdet
p181
F0.06911764705882353
tp182
a(Vnum
p183
F0.010294117647058823
tp184
a(Vpunct
p185
F0.10735294117647058
tp186
a(g20
F0.13872549019607844
tp187
a(Vverb
p188
F0.11372549019607843
tp189
a(Vcomparative
p190
F0.00196078431372549
tp191
a(Vpart
p192
F0.0029411764705882353
tp193
a(Vtag
p194
F0.004901960784313725
tp195
a(Vadj
p196
F0.05588235294117647
tp197
a(Vprep
p198
F0.06813725490196078
tp199
a(g30
F12.0
tp200
a(g32
F203.0
tp201
a(g34
I1
tp202
a(g36
I26
tp203
a(g38
I0
tp204
a(g40
I0
tp205
a(g42
I0
tp206
a(g44
I0
tp207
a(g46
I1
tp208
a(g48
I1
tp209
a(g50
I136
tp210
a(g52
I3
tp211
a(g54
I0
tp212
a(g56
I21
tp213
a(g58
I0
tp214
a(g60
F0.01098901098901099
tp215
a(g62
F9029.0
tp216
a(g64
F50.0
tp217
a(g66
I9
tp218
a(g68
I9
tp219
aa(lp220
(Vadv
p221
F0.079312257348863
tp222
a(Vpp
p223
F0.0022185246810870773
tp224
a(g126
F0.31281198003327787
tp225
a(Vvg
p226
F0.012756516916250694
tp227
a(Vcomp
p228
F0.03438713255684969
tp229
a(Vdet
p230
F0.06100942872989462
tp231
a(Vnum
p232
F0.007210205213533
tp233
a(g136
F0.11813643926788686
tp234
a(g20
F0.12756516916250693
tp235
a(Vverb
p236
F0.12922906267332224
tp237
a(Vtag
p238
F0.004991680532445923
tp239
a(Vpart
p240
F0.0027731558513588465
tp241
a(Vfixed
p242
F0.0005546311702717693
tp243
a(Vadj
p244
F0.04603438713255685
tp245
a(Vprep
p246
F0.06100942872989462
tp247
a(g30
F8.0
tp248
a(g32
F157.0
tp249
a(g34
I1
tp250
a(g36
I21
tp251
a(g38
I1
tp252
a(g40
I0
tp253
a(g42
I0
tp254
a(g44
I0
tp255
a(g46
I11
tp256
a(g48
I8
tp257
a(g50
I152
tp258
a(g52
I1
tp259
a(g54
I0
tp260
a(g56
I5
tp261
a(g58
I0
tp262
a(g60
F0.011904761904761904
tp263
a(g62
F7494.0
tp264
a(g64
F50.0
tp265
a(g66
I0
tp266
a(g68
I7
tp267
aa(lp268
(Vadv
p269
F0.07492063492063492
tp270
a(Vpp
p271
F0.0012698412698412698
tp272
a(g126
F0.2634920634920635
tp273
a(g79
F0.011428571428571429
tp274
a(Vcomp
p275
F0.013333333333333334
tp276
a(Vdet
p277
F0.07174603174603175
tp278
a(Vnum
p279
F0.010158730158730159
tp280
a(g18
F0.13015873015873017
tp281
a(g20
F0.16507936507936508
tp282
a(Vverb
p283
F0.1073015873015873
tp284
a(g141
F0.0006349206349206349
tp285
a(Vpart
p286
F0.005714285714285714
tp287
a(Vtag
p288
F0.0006349206349206349
tp289
a(Vadj
p290
F0.05714285714285714
tp291
a(Vprep
p292
F0.08698412698412698
tp293
a(g30
F14.0
tp294
a(g32
F216.0
tp295
a(g34
I20
tp296
a(g36
I40
tp297
a(g38
I0
tp298
a(g40
I0
tp299
a(g42
I0
tp300
a(g44
I0
tp301
a(g46
I2
tp302
a(g48
I-2
tp303
a(g50
I55
tp304
a(g52
I18
tp305
a(g54
I0
tp306
a(g56
I40
tp307
a(g58
I0
tp308
a(g60
F0.00980392156862745
tp309
a(g62
F6993.0
tp310
a(g64
F50.0
tp311
a(g66
I1
tp312
a(g68
I5
tp313
aa(lp314
(Vadv
p315
F0.1098153547133139
tp316
a(Vpp
p317
F0.0009718172983479105
tp318
a(g126
F0.2886297376093295
tp319
a(Vvg
p320
F0.01652089407191448
tp321
a(Vcomp
p322
F0.019436345966958212
tp323
a(Vdet
p324
F0.07191448007774538
tp325
a(g16
F0.004859086491739553
tp326
a(Vpunct
p327
F0.12147716229348883
tp328
a(g20
F0.11273080660835763
tp329
a(Vverb
p330
F0.13896987366375121
tp331
a(Vpart
p332
F0.004859086491739553
tp333
a(Vtag
p334
F0.01749271137026239
tp335
a(Vadj
p336
F0.042759961127308066
tp337
a(Vprep
p338
F0.04956268221574344
tp339
a(g30
F0.0
tp340
a(g32
F91.0
tp341
a(g34
I8
tp342
a(g36
I19
tp343
a(g38
I0
tp344
a(g40
I0
tp345
a(g42
I1
tp346
a(g44
I0
tp347
a(g46
I6
tp348
a(g48
I1
tp349
a(g50
I63
tp350
a(g52
I1
tp351
a(g54
I0
tp352
a(g56
I1
tp353
a(g58
I0
tp354
a(g60
F0.009900990099009901
tp355
a(g62
F3843.0
tp356
a(g64
F50.0
tp357
a(g66
I0
tp358
a(g68
I3
tp359
aa(lp360
(Vadv
p361
F0.04944620253164557
tp362
a(Vpp
p363
F0.0011867088607594937
tp364
a(Vfixed
p365
F0.00039556962025316455
tp366
a(Vnoun
p367
F0.27175632911392406
tp368
a(Vvg
p369
F0.010284810126582278
tp370
a(Vcomp
p371
F0.01819620253164557
tp372
a(g277
F0.051819620253164556
tp373
a(Vnum
p374
F0.011075949367088608
tp375
a(Vpunct
p376
F0.12460443037974683
tp377
a(g20
F0.28322784810126583
tp378
a(Vverb
p379
F0.07238924050632911
tp380
a(Vcomparative
p381
F0.0011867088607594937
tp382
a(Vpart
p383
F0.0023734177215189874
tp384
a(Vtag
p385
F0.0007911392405063291
tp386
a(Vadj
p387
F0.04865506329113924
tp388
a(Vprep
p389
F0.05261075949367089
tp390
a(g30
F52.0
tp391
a(g32
F214.0
tp392
a(g34
I72
tp393
a(g36
I25
tp394
a(g38
I0
tp395
a(g40
I0
tp396
a(g42
I0
tp397
a(g44
I0
tp398
a(g46
I29
tp399
a(g48
I26
tp400
a(g50
I163
tp401
a(g52
I129
tp402
a(g54
I0
tp403
a(g56
I22
tp404
a(g58
I0
tp405
a(g60
F0.006993006993006993
tp406
a(g62
F10285.0
tp407
a(g64
F50.0
tp408
a(g66
I2
tp409
a(g68
I7
tp410
aa(lp411
(Vadv
p412
F0.07338380896913221
tp413
a(Vpp
p414
F0.0011648223645894002
tp415
a(Vfixed
p416
F0.0005824111822947001
tp417
a(g126
F0.22597553873034362
tp418
a(Vvg
p419
F0.0110658124635993
tp420
a(g12
F0.027373325567850902
tp421
a(Vdet
p422
F0.0512521840419336
tp423
a(Vnum
p424
F0.011648223645894
tp425
a(g185
F0.18695398951659872
tp426
a(g20
F0.16423995340710543
tp427
a(Vverb
p428
F0.12172393709959231
tp429
a(Vpart
p430
F0.0064065230052417
tp431
a(g238
F0.0017472335468841002
tp432
a(g26
F0.05824111822947001
tp433
a(Vprep
p434
F0.05824111822947001
tp435
a(g30
F3.0
tp436
a(g32
F186.0
tp437
a(g34
I6
tp438
a(g36
I167
tp439
a(g38
I1
tp440
a(g40
I0
tp441
a(g42
I0
tp442
a(g44
I0
tp443
a(g46
I4
tp444
a(g48
I-2
tp445
a(g50
I73
tp446
a(g52
I1
tp447
a(g54
I3
tp448
a(g56
I0
tp449
a(g58
I0
tp450
a(g60
F0.009900990099009901
tp451
a(g62
F5898.0
tp452
a(g64
F50.0
tp453
a(g66
I3
tp454
a(g68
I6
tp455
aa(lp456
(g361
F0.08123249299719888
tp457
a(Vpp
p458
F0.0016806722689075631
tp459
a(Vfixed
p460
F0.0005602240896358543
tp461
a(g126
F0.3025210084033613
tp462
a(Vvg
p463
F0.01288515406162465
tp464
a(Vcomp
p465
F0.02969187675070028
tp466
a(Vdet
p467
F0.05994397759103642
tp468
a(Vnum
p469
F0.008403361344537815
tp470
a(g136
F0.0761904761904762
tp471
a(g20
F0.16862745098039217
tp472
a(g188
F0.13333333333333333
tp473
a(Vcomparative
p474
F0.0005602240896358543
tp475
a(g240
F0.002240896358543417
tp476
a(g24
F0.0033613445378151263
tp477
a(Vadj
p478
F0.058823529411764705
tp479
a(g28
F0.05994397759103642
tp480
a(g30
F7.0
tp481
a(g32
F188.0
tp482
a(g34
I6
tp483
a(g36
I29
tp484
a(g38
I1
tp485
a(g40
I0
tp486
a(g42
I1
tp487
a(g44
I0
tp488
a(g46
I3
tp489
a(g48
I3
tp490
a(g50
I99
tp491
a(g52
I11
tp492
a(g54
I12
tp493
a(g56
I7
tp494
a(g58
I0
tp495
a(g60
F0.009900990099009901
tp496
a(g62
F7249.0
tp497
a(g64
F50.0
tp498
a(g66
I1
tp499
a(g68
I9
tp500
aa(lp501
(Vadv
p502
F0.049967969250480464
tp503
a(Vfixed
p504
F0.0006406149903907751
tp505
a(Vnoun
p506
F0.2696989109545163
tp507
a(Vvg
p508
F0.014093529788597053
tp509
a(Vcomp
p510
F0.02114029468289558
tp511
a(Vdet
p512
F0.08456117873158232
tp513
a(Vnum
p514
F0.009609224855861628
tp515
a(g327
F0.12427930813581038
tp516
a(g20
F0.15951313260730302
tp517
a(Vverb
p518
F0.1159513132607303
tp519
a(Vcomparative
p520
F0.0006406149903907751
tp521
a(Vpart
p522
F0.0025624599615631004
tp523
a(Vtag
p524
F0.0019218449711723255
tp525
a(Vadj
p526
F0.05253042921204356
tp527
a(Vprep
p528
F0.09288917360666239
tp529
a(g30
F5.0
tp530
a(g32
F191.0
tp531
a(g34
I13
tp532
a(g36
I28
tp533
a(g38
I0
tp534
a(g40
I0
tp535
a(g42
I0
tp536
a(g44
I0
tp537
a(g46
I0
tp538
a(g48
I0
tp539
a(g50
I42
tp540
a(g52
I38
tp541
a(g54
I0
tp542
a(g56
I33
tp543
a(g58
I0
tp544
a(g60
F0.010526315789473684
tp545
a(g62
F6893.0
tp546
a(g64
F50.0
tp547
a(g66
I1
tp548
a(g68
I7
tp549
aa(lp550
(Vadv
p551
F0.06305939788445891
tp552
a(g271
F0.0012205044751830757
tp553
a(g365
F0.0004068348250610252
tp554
a(Vnoun
p555
F0.2868185516680228
tp556
a(g79
F0.011798209926769731
tp557
a(Vcomp
p558
F0.021969080553295363
tp559
a(Vdet
p560
F0.04922701383238405
tp561
a(Vnum
p562
F0.006916192026037429
tp563
a(g185
F0.13954434499593166
tp564
a(g20
F0.2367778681855167
tp565
a(Vverb
p566
F0.07811228641171684
tp567
a(Vpart
p568
F0.0028478437754271765
tp569
a(g288
F0.0012205044751830757
tp570
a(Vadj
p571
F0.0467860048820179
tp572
a(Vprep
p573
F0.053295362082994305
tp574
a(g30
F31.0
tp575
a(g32
F212.0
tp576
a(g34
I82
tp577
a(g36
I26
tp578
a(g38
I0
tp579
a(g40
I0
tp580
a(g42
I2
tp581
a(g44
I0
tp582
a(g46
I26
tp583
a(g48
I26
tp584
a(g50
I114
tp585
a(g52
I114
tp586
a(g54
I0
tp587
a(g56
I35
tp588
a(g58
I0
tp589
a(g60
F0.0072992700729927005
tp590
a(g62
F10210.0
tp591
a(g64
F50.0
tp592
a(g66
I1
tp593
a(g68
I10
tp594
aa(lp595
(Vadv
p596
F0.08306082406801832
tp597
a(Vpp
p598
F0.0006540222367560497
tp599
a(Vnoun
p600
F0.27207325049051667
tp601
a(Vvg
p602
F0.01765860039241334
tp603
a(Vcomp
p604
F0.02223675604970569
tp605
a(Vdet
p606
F0.08371484630477437
tp607
a(Vnum
p608
F0.011772400261608895
tp609
a(g18
F0.14126880313930673
tp610
a(g20
F0.1249182472204055
tp611
a(Vverb
p612
F0.12034009156311315
tp613
a(g95
F0.005886200130804447
tp614
a(g141
F0.0013080444735120995
tp615
a(Vpart
p616
F0.0032701111837802484
tp617
a(Vfixed
p618
F0.001962066710268149
tp619
a(Vadj
p620
F0.052975801177240024
tp621
a(g28
F0.05689993459777633
tp622
a(g30
F11.0
tp623
a(g32
F154.0
tp624
a(g34
I11
tp625
a(g36
I59
tp626
a(g38
I3
tp627
a(g40
I0
tp628
a(g42
I1
tp629
a(g44
I0
tp630
a(g46
I3
tp631
a(g48
I1
tp632
a(g50
I64
tp633
a(g52
I0
tp634
a(g54
I0
tp635
a(g56
I19
tp636
a(g58
I0
tp637
a(g60
F0.009433962264150943
tp638
a(g62
F5914.0
tp639
a(g64
F50.0
tp640
a(g66
I1
tp641
a(g68
I8
tp642
aa(lp643
(Vadv
p644
F0.1042319749216301
tp645
a(Vverb
p646
F0.14890282131661442
tp647
a(g126
F0.29153605015673983
tp648
a(g419
F0.023510971786833857
tp649
a(Vcomp
p650
F0.0219435736677116
tp651
a(Vdet
p652
F0.047021943573667714
tp653
a(g414
F0.001567398119122257
tp654
a(Vnum
p655
F0.013322884012539185
tp656
a(g136
F0.05642633228840126
tp657
a(g20
F0.16222570532915362
tp658
a(g238
F0.0054858934169279
tp659
a(Vcomparative
p660
F0.001567398119122257
tp661
a(g430
F0.0023510971786833857
tp662
a(Vfixed
p663
F0.0023510971786833857
tp664
a(Vadj
p665
F0.03605015673981191
tp666
a(Vprep
p667
F0.08150470219435736
tp668
a(g30
F7.0
tp669
a(g32
F139.0
tp670
a(g34
I14
tp671
a(g36
I19
tp672
a(g38
I0
tp673
a(g40
I0
tp674
a(g42
I0
tp675
a(g44
I0
tp676
a(g46
I21
tp677
a(g48
I19
tp678
a(g50
I84
tp679
a(g52
I1
tp680
a(g54
I0
tp681
a(g56
I3
tp682
a(g58
I0
tp683
a(g60
F0.009900990099009901
tp684
a(g62
F5080.0
tp685
a(g64
F50.0
tp686
a(g66
I0
tp687
a(g68
I10
tp688
aa(lp689
(Vadv
p690
F0.03538461538461538
tp691
a(Vpp
p692
F0.0007692307692307692
tp693
a(g6
F0.0007692307692307692
tp694
a(Vnoun
p695
F0.2753846153846154
tp696
a(g79
F0.010769230769230769
tp697
a(Vcomp
p698
F0.004615384615384616
tp699
a(g14
F0.057692307692307696
tp700
a(Vnum
p701
F0.014615384615384615
tp702
a(g185
F0.12153846153846154
tp703
a(g20
F0.24615384615384617
tp704
a(Vverb
p705
F0.09538461538461539
tp706
a(Vpart
p707
F0.003076923076923077
tp708
a(g334
F0.0007692307692307692
tp709
a(Vadj
p710
F0.05307692307692308
tp711
a(g338
F0.08
tp712
a(g30
F14.0
tp713
a(g32
F168.0
tp714
a(g34
I16
tp715
a(g36
I13
tp716
a(g38
I2
tp717
a(g40
I0
tp718
a(g42
I0
tp719
a(g44
I0
tp720
a(g46
I6
tp721
a(g48
I3
tp722
a(g50
I54
tp723
a(g52
I22
tp724
a(g54
I0
tp725
a(g56
I58
tp726
a(g58
I0
tp727
a(g60
F0.011764705882352941
tp728
a(g62
F6292.0
tp729
a(g64
F50.0
tp730
a(g66
I3
tp731
a(g68
I9
tp732
aa(lp733
(g551
F0.06929510155316607
tp734
a(g174
F0.0017921146953405018
tp735
a(g460
F0.0005973715651135006
tp736
a(g126
F0.2921146953405018
tp737
a(Vvg
p738
F0.017323775388291517
tp739
a(Vcomp
p740
F0.027479091995221028
tp741
a(g560
F0.05137395459976105
tp742
a(g232
F0.012544802867383513
tp743
a(g18
F0.08422939068100359
tp744
a(g20
F0.1953405017921147
tp745
a(Vverb
p746
F0.12962962962962962
tp747
a(Vpart
p748
F0.0017921146953405018
tp749
a(g334
F0.005376344086021506
tp750
a(Vadj
p751
F0.04002389486260454
tp752
a(g389
F0.07108721624850657
tp753
a(g30
F4.0
tp754
a(g32
F173.0
tp755
a(g34
I10
tp756
a(g36
I28
tp757
a(g38
I0
tp758
a(g40
I0
tp759
a(g42
I0
tp760
a(g44
I0
tp761
a(g46
I6
tp762
a(g48
I0
tp763
a(g50
I104
tp764
a(g52
I11
tp765
a(g54
I10
tp766
a(g56
I7
tp767
a(g58
I0
tp768
a(g60
F0.009900990099009901
tp769
a(g62
F6646.0
tp770
a(g64
F50.0
tp771
a(g66
I1
tp772
a(g68
I14
tp773
aa(lp774
(Vadv
p775
F0.0831353919239905
tp776
a(g414
F0.0023752969121140144
tp777
a(g126
F0.29453681710213775
tp778
a(Vvg
p779
F0.012668250197941409
tp780
a(Vcomp
p781
F0.023752969121140142
tp782
a(Vdet
p783
F0.03642121931908155
tp784
a(g608
F0.00791765637371338
tp785
a(g185
F0.12430720506730007
tp786
a(g20
F0.16072842438638163
tp787
a(Vverb
p788
F0.13618368962787014
tp789
a(g238
F0.00791765637371338
tp790
a(Vpart
p791
F0.003167062549485352
tp792
a(g242
F0.001583531274742676
tp793
a(Vadj
p794
F0.053840063341250986
tp795
a(Vprep
p796
F0.05146476642913698
tp797
a(g30
F4.0
tp798
a(g32
F118.0
tp799
a(g34
I0
tp800
a(g36
I130
tp801
a(g38
I0
tp802
a(g40
I0
tp803
a(g42
I0
tp804
a(g44
I0
tp805
a(g46
I0
tp806
a(g48
I0
tp807
a(g50
I93
tp808
a(g52
I1
tp809
a(g54
I0
tp810
a(g56
I7
tp811
a(g58
I0
tp812
a(g60
F0.009900990099009901
tp813
a(g62
F4896.0
tp814
a(g64
F50.0
tp815
a(g66
I0
tp816
a(g68
I6
tp817
aa(lp818
(Vadv
p819
F0.04811715481171548
tp820
a(Vnoun
p821
F0.26569037656903766
tp822
a(g463
F0.011506276150627616
tp823
a(g558
F0.010460251046025104
tp824
a(Vdet
p825
F0.06903765690376569
tp826
a(Vnum
p827
F0.007322175732217573
tp828
a(g376
F0.11506276150627615
tp829
a(g20
F0.25523012552301255
tp830
a(Vverb
p831
F0.07635983263598327
tp832
a(g568
F0.005230125523012552
tp833
a(g288
F0.0010460251046025104
tp834
a(Vadj
p835
F0.04707112970711297
tp836
a(Vprep
p837
F0.08786610878661087
tp838
a(g30
F6.0
tp839
a(g32
F145.0
tp840
a(g34
I25
tp841
a(g36
I11
tp842
a(g38
I1
tp843
a(g40
I0
tp844
a(g42
I0
tp845
a(g44
I0
tp846
a(g46
I0
tp847
a(g48
I0
tp848
a(g50
I16
tp849
a(g52
I36
tp850
a(g54
I0
tp851
a(g56
I48
tp852
a(g58
I0
tp853
a(g60
F0.009900990099009901
tp854
a(g62
F4329.0
tp855
a(g64
F50.0
tp856
a(g66
I2
tp857
a(g68
I2
tp858
aa(lp859
(Vadv
p860
F0.06386861313868614
tp861
a(Vpp
p862
F0.0006082725060827251
tp863
a(Vnoun
p864
F0.29501216545012166
tp865
a(g10
F0.018856447688564478
tp866
a(g781
F0.018856447688564478
tp867
a(Vdet
p868
F0.09367396593673966
tp869
a(Vnum
p870
F0.01338199513381995
tp871
a(g327
F0.08698296836982969
tp872
a(g20
F0.12652068126520682
tp873
a(Vverb
p874
F0.12408759124087591
tp875
a(g194
F0.0006082725060827251
tp876
a(g141
F0.0006082725060827251
tp877
a(Vpart
p878
F0.004866180048661801
tp879
a(Vfixed
p880
F0.0018248175182481751
tp881
a(Vadj
p882
F0.05961070559610705
tp883
a(Vprep
p884
F0.09063260340632603
tp885
a(g30
F21.0
tp886
a(g32
F192.0
tp887
a(g34
I20
tp888
a(g36
I30
tp889
a(g38
I0
tp890
a(g40
I0
tp891
a(g42
I1
tp892
a(g44
I0
tp893
a(g46
I5
tp894
a(g48
I5
tp895
a(g50
I26
tp896
a(g52
I95
tp897
a(g54
I1
tp898
a(g56
I5
tp899
a(g58
I0
tp900
a(g60
F0.009900990099009901
tp901
a(g62
F7420.0
tp902
a(g64
F50.0
tp903
a(g66
I0
tp904
a(g68
I4
tp905
aa(lp906
(g361
F0.075
tp907
a(g458
F0.000641025641025641
tp908
a(Vfixed
p909
F0.000641025641025641
tp910
a(Vnoun
p911
F0.2743589743589744
tp912
a(Vvg
p913
F0.008974358974358974
tp914
a(g275
F0.013461538461538462
tp915
a(Vdet
p916
F0.0532051282051282
tp917
a(g870
F0.0038461538461538464
tp918
a(Vpunct
p919
F0.15384615384615385
tp920
a(g20
F0.21602564102564104
tp921
a(Vverb
p922
F0.09166666666666666
tp923
a(g141
F0.0019230769230769232
tp924
a(Vpart
p925
F0.002564102564102564
tp926
a(g95
F0.00641025641025641
tp927
a(g620
F0.04871794871794872
tp928
a(Vprep
p929
F0.04871794871794872
tp930
a(g30
F12.0
tp931
a(g32
F158.0
tp932
a(g34
I61
tp933
a(g36
I54
tp934
a(g38
I2
tp935
a(g40
I0
tp936
a(g42
I0
tp937
a(g44
I0
tp938
a(g46
I4
tp939
a(g48
I4
tp940
a(g50
I66
tp941
a(g52
I29
tp942
a(g54
I10
tp943
a(g56
I26
tp944
a(g58
I0
tp945
a(g60
F0.009900990099009901
tp946
a(g62
F6183.0
tp947
a(g64
F50.0
tp948
a(g66
I7
tp949
a(g68
I11
tp950
aa(lp951
(Vadv
p952
F0.09473684210526316
tp953
a(Vpp
p954
F0.0007017543859649122
tp955
a(Vfixed
p956
F0.0007017543859649122
tp957
a(g126
F0.25263157894736843
tp958
a(Vvg
p959
F0.013333333333333334
tp960
a(Vcomp
p961
F0.02245614035087719
tp962
a(g560
F0.07649122807017544
tp963
a(Vnum
p964
F0.007017543859649123
tp965
a(g136
F0.18736842105263157
tp966
a(g20
F0.12
tp967
a(g831
F0.11017543859649123
tp968
a(Vpart
p969
F0.0035087719298245615
tp970
a(g194
F0.009824561403508772
tp971
a(g835
F0.05473684210526316
tp972
a(g573
F0.04631578947368421
tp973
a(g30
F9.0
tp974
a(g32
F157.0
tp975
a(g34
I11
tp976
a(g36
I117
tp977
a(g38
I0
tp978
a(g40
I0
tp979
a(g42
I0
tp980
a(g44
I0
tp981
a(g46
I2
tp982
a(g48
I0
tp983
a(g50
I64
tp984
a(g52
I0
tp985
a(g54
I0
tp986
a(g56
I19
tp987
a(g58
I0
tp988
a(g60
F0.00980392156862745
tp989
a(g62
F5230.0
tp990
a(g64
F50.0
tp991
a(g66
I0
tp992
a(g68
I4
tp993
aa(lp994
(Vadv
p995
F0.1033457249070632
tp996
a(g271
F0.0007434944237918215
tp997
a(g460
F0.0022304832713754648
tp998
a(g126
F0.2929368029739777
tp999
a(g419
F0.023048327137546468
tp1000
a(Vcomp
p1001
F0.026765799256505577
tp1002
a(Vdet
p1003
F0.06617100371747212
tp1004
a(Vnum
p1005
F0.007434944237918215
tp1006
a(Vpunct
p1007
F0.05947955390334572
tp1008
a(g20
F0.137546468401487
tp1009
a(Vverb
p1010
F0.13457249070631971
tp1011
a(Vcomparative
p1012
F0.0007434944237918215
tp1013
a(g238
F0.0037174721189591076
tp1014
a(Vadj
p1015
F0.06394052044609666
tp1016
a(Vprep
p1017
F0.07732342007434945
tp1018
a(g30
F16.0
tp1019
a(g32
F146.0
tp1020
a(g34
I3
tp1021
a(g36
I52
tp1022
a(g38
I1
tp1023
a(g40
I0
tp1024
a(g42
I0
tp1025
a(g44
I0
tp1026
a(g46
I1
tp1027
a(g48
I-1
tp1028
a(g50
I57
tp1029
a(g52
I0
tp1030
a(g54
I0
tp1031
a(g56
I10
tp1032
a(g58
I0
tp1033
a(g60
F0.009345794392523364
tp1034
a(g62
F5665.0
tp1035
a(g64
F50.0
tp1036
a(g66
I1
tp1037
a(g68
I6
tp1038
aa(lp1039
(Vadv
p1040
F0.08776595744680851
tp1041
a(Vnoun
p1042
F0.300531914893617
tp1043
a(g10
F0.02127659574468085
tp1044
a(Vcomp
p1045
F0.011968085106382979
tp1046
a(g83
F0.04920212765957447
tp1047
a(g232
F0.026595744680851064
tp1048
a(g376
F0.09308510638297872
tp1049
a(g20
F0.13164893617021275
tp1050
a(Vverb
p1051
F0.12234042553191489
tp1052
a(g286
F0.006648936170212766
tp1053
a(Vadj
p1054
F0.08111702127659574
tp1055
a(Vprep
p1056
F0.0678191489361702
tp1057
a(g30
F4.0
tp1058
a(g32
F88.0
tp1059
a(g34
I12
tp1060
a(g36
I0
tp1061
a(g38
I0
tp1062
a(g40
I4
tp1063
a(g42
I0
tp1064
a(g44
I0
tp1065
a(g46
I39
tp1066
a(g48
I33
tp1067
a(g50
I10
tp1068
a(g52
I2
tp1069
a(g54
I0
tp1070
a(g56
I1
tp1071
a(g58
I0
tp1072
a(g60
F0.00980392156862745
tp1073
a(g62
F2896.0
tp1074
a(g64
F50.0
tp1075
a(g66
I0
tp1076
a(g68
I1
tp1077
aa(lp1078
(g2
F0.09009009009009009
tp1079
a(Vpp
p1080
F0.002574002574002574
tp1081
a(g956
F0.0032175032175032173
tp1082
a(Vnoun
p1083
F0.25225225225225223
tp1084
a(g79
F0.014157014157014158
tp1085
a(g604
F0.030244530244530245
tp1086
a(g422
F0.07915057915057915
tp1087
a(Vnum
p1088
F0.0032175032175032173
tp1089
a(g327
F0.138996138996139
tp1090
a(g20
F0.1364221364221364
tp1091
a(Vverb
p1092
F0.13063063063063063
tp1093
a(Vpart
p1094
F0.0019305019305019305
tp1095
a(g95
F0.0006435006435006435
tp1096
a(g1015
F0.05855855855855856
tp1097
a(Vprep
p1098
F0.05791505791505792
tp1099
a(g30
F11.0
tp1100
a(g32
F174.0
tp1101
a(g34
I10
tp1102
a(g36
I59
tp1103
a(g38
I0
tp1104
a(g40
I0
tp1105
a(g42
I1
tp1106
a(g44
I0
tp1107
a(g46
I3
tp1108
a(g48
I3
tp1109
a(g50
I69
tp1110
a(g52
I1
tp1111
a(g54
I0
tp1112
a(g56
I18
tp1113
a(g58
I0
tp1114
a(g60
F0.009900990099009901
tp1115
a(g62
F5936.0
tp1116
a(g64
F50.0
tp1117
a(g66
I1
tp1118
a(g68
I4
tp1119
aa(lp1120
(Vadv
p1121
F0.06134094151212553
tp1122
a(g271
F0.0007132667617689016
tp1123
a(g126
F0.29386590584878747
tp1124
a(Vvg
p1125
F0.01783166904422254
tp1126
a(Vcomp
p1127
F0.025677603423680456
tp1128
a(Vdet
p1129
F0.07560627674750357
tp1130
a(Vnum
p1131
F0.015691868758915834
tp1132
a(g136
F0.1398002853067047
tp1133
a(g20
F0.09486447931526391
tp1134
a(Vverb
p1135
F0.11982881597717546
tp1136
a(g288
F0.0014265335235378032
tp1137
a(g240
F0.003566333808844508
tp1138
a(Vfixed
p1139
F0.0014265335235378032
tp1140
a(Vadj
p1141
F0.05420827389443652
tp1142
a(Vprep
p1143
F0.09415121255349501
tp1144
a(g30
F16.0
tp1145
a(g32
F158.0
tp1146
a(g34
I19
tp1147
a(g36
I45
tp1148
a(g38
I1
tp1149
a(g40
I0
tp1150
a(g42
I0
tp1151
a(g44
I0
tp1152
a(g46
I0
tp1153
a(g48
I0
tp1154
a(g50
I27
tp1155
a(g52
I1
tp1156
a(g54
I2
tp1157
a(g56
I13
tp1158
a(g58
I0
tp1159
a(g60
F0.009174311926605505
tp1160
a(g62
F5595.0
tp1161
a(g64
F50.0
tp1162
a(g66
I2
tp1163
a(g68
I9
tp1164
aa(lp1165
(Vadv
p1166
F0.07273802483737433
tp1167
a(Vpp
p1168
F0.0011827321111768185
tp1169
a(Vfixed
p1170
F0.0011827321111768185
tp1171
a(g126
F0.27912477823772913
tp1172
a(g79
F0.01596688350088705
tp1173
a(g228
F0.02956830277942046
tp1174
a(g652
F0.05913660555884092
tp1175
a(Vnum
p1176
F0.00827912477823773
tp1177
a(g919
F0.11295091661738617
tp1178
a(g20
F0.1797752808988764
tp1179
a(Vverb
p1180
F0.11827321111768184
tp1181
a(g141
F0.0005913660555884093
tp1182
a(g707
F0.0035481963335304554
tp1183
a(g288
F0.0005913660555884093
tp1184
a(Vadj
p1185
F0.04376108811354228
tp1186
a(Vprep
p1187
F0.07332939089296274
tp1188
a(g30
F5.0
tp1189
a(g32
F193.0
tp1190
a(g34
I22
tp1191
a(g36
I43
tp1192
a(g38
I0
tp1193
a(g40
I0
tp1194
a(g42
I0
tp1195
a(g44
I0
tp1196
a(g46
I16
tp1197
a(g48
I14
tp1198
a(g50
I123
tp1199
a(g52
I20
tp1200
a(g54
I1
tp1201
a(g56
I14
tp1202
a(g58
I0
tp1203
a(g60
F0.009900990099009901
tp1204
a(g62
F7306.0
tp1205
a(g64
F50.0
tp1206
a(g66
I1
tp1207
a(g68
I4
tp1208
aa(lp1209
(Vadv
p1210
F0.060461416070007955
tp1211
a(g271
F0.0015910898965791568
tp1212
a(g460
F0.0007955449482895784
tp1213
a(Vnoun
p1214
F0.27008750994431185
tp1215
a(Vvg
p1216
F0.010342084327764518
tp1217
a(Vcomp
p1218
F0.021081941129673827
tp1219
a(Vdet
p1220
F0.04295942720763723
tp1221
a(g374
F0.00954653937947494
tp1222
a(g376
F0.11614956245027844
tp1223
a(g20
F0.2637231503579952
tp1224
a(Vverb
p1225
F0.0883054892601432
tp1226
a(Vpart
p1227
F0.004375497215592681
tp1228
a(g288
F0.0015910898965791568
tp1229
a(Vadj
p1230
F0.04892601431980907
tp1231
a(Vprep
p1232
F0.060063643595863164
tp1233
a(g30
F20.0
tp1234
a(g32
F206.0
tp1235
a(g34
I59
tp1236
a(g36
I15
tp1237
a(g38
I0
tp1238
a(g40
I0
tp1239
a(g42
I0
tp1240
a(g44
I0
tp1241
a(g46
I25
tp1242
a(g48
I24
tp1243
a(g50
I140
tp1244
a(g52
I117
tp1245
a(g54
I0
tp1246
a(g56
I26
tp1247
a(g58
I0
tp1248
a(g60
F0.007042253521126761
tp1249
a(g62
F10460.0
tp1250
a(g64
F50.0
tp1251
a(g66
I0
tp1252
a(g68
I11
tp1253
aa(lp1254
(Vadv
p1255
F0.09044368600682594
tp1256
a(g271
F0.0005688282138794084
tp1257
a(g126
F0.2781569965870307
tp1258
a(Vvg
p1259
F0.01422070534698521
tp1260
a(g275
F0.03185437997724687
tp1261
a(Vdet
p1262
F0.05233219567690557
tp1263
a(Vnum
p1264
F0.013083048919226393
tp1265
a(g185
F0.10466439135381114
tp1266
a(g20
F0.1626848691695108
tp1267
a(Vverb
p1268
F0.12457337883959044
tp1269
a(g238
F0.003981797497155859
tp1270
a(g1012
F0.0011376564277588168
tp1271
a(g332
F0.003981797497155859
tp1272
a(Vfixed
p1273
F0.0005688282138794084
tp1274
a(Vadj
p1275
F0.0540386803185438
tp1276
a(Vprep
p1277
F0.06370875995449374
tp1278
a(g30
F7.0
tp1279
a(g32
F192.0
tp1280
a(g34
I37
tp1281
a(g36
I27
tp1282
a(g38
I0
tp1283
a(g40
I0
tp1284
a(g42
I0
tp1285
a(g44
I0
tp1286
a(g46
I18
tp1287
a(g48
I16
tp1288
a(g50
I132
tp1289
a(g52
I28
tp1290
a(g54
I2
tp1291
a(g56
I7
tp1292
a(g58
I0
tp1293
a(g60
F0.009900990099009901
tp1294
a(g62
F7175.0
tp1295
a(g64
F50.0
tp1296
a(g66
I0
tp1297
a(g68
I5
tp1298
aa(lp1299
(g361
F0.06715993170176437
tp1300
a(g174
F0.0028457598178713715
tp1301
a(Vnoun
p1302
F0.2794536141149687
tp1303
a(g602
F0.017643710870802503
tp1304
a(g604
F0.0199203187250996
tp1305
a(g512
F0.08195788275469551
tp1306
a(Vnum
p1307
F0.008537279453614115
tp1308
a(g18
F0.08081957882754695
tp1309
a(g20
F0.14228799089356858
tp1310
a(Vverb
p1311
F0.13602731929425158
tp1312
a(g194
F0.0005691519635742744
tp1313
a(Vcomparative
p1314
F0.0011383039271485487
tp1315
a(Vpart
p1316
F0.004553215708594195
tp1317
a(Vfixed
p1318
F0.0022766078542970974
tp1319
a(Vadj
p1320
F0.06033010813887308
tp1321
a(Vprep
p1322
F0.09447922595332954
tp1323
a(g30
F9.0
tp1324
a(g32
F243.0
tp1325
a(g34
I19
tp1326
a(g36
I17
tp1327
a(g38
I1
tp1328
a(g40
I0
tp1329
a(g42
I1
tp1330
a(g44
I0
tp1331
a(g46
I4
tp1332
a(g48
I2
tp1333
a(g50
I16
tp1334
a(g52
I104
tp1335
a(g54
I0
tp1336
a(g56
I5
tp1337
a(g58
I0
tp1338
a(g60
F0.009900990099009901
tp1339
a(g62
F8263.0
tp1340
a(g64
F50.0
tp1341
a(g66
I2
tp1342
a(g68
I6
tp1343
aa(lp1344
(Vadv
p1345
F0.07012987012987013
tp1346
a(g174
F0.0012987012987012987
tp1347
a(Vnoun
p1348
F0.2792207792207792
tp1349
a(g79
F0.02077922077922078
tp1350
a(g781
F0.02012987012987013
tp1351
a(Vdet
p1352
F0.08311688311688312
tp1353
a(Vnum
p1354
F0.007142857142857143
tp1355
a(g136
F0.09220779220779221
tp1356
a(g20
F0.14415584415584415
tp1357
a(Vverb
p1358
F0.11493506493506493
tp1359
a(g288
F0.005844155844155844
tp1360
a(g91
F0.0006493506493506494
tp1361
a(g286
F0.003246753246753247
tp1362
a(g242
F0.0012987012987012987
tp1363
a(Vadj
p1364
F0.06623376623376623
tp1365
a(g1143
F0.08961038961038961
tp1366
a(g30
F8.0
tp1367
a(g32
F171.0
tp1368
a(g34
I39
tp1369
a(g36
I17
tp1370
a(g38
I0
tp1371
a(g40
I0
tp1372
a(g42
I0
tp1373
a(g44
I0
tp1374
a(g46
I3
tp1375
a(g48
I-1
tp1376
a(g50
I31
tp1377
a(g52
I71
tp1378
a(g54
I0
tp1379
a(g56
I16
tp1380
a(g58
I0
tp1381
a(g60
F0.009900990099009901
tp1382
a(g62
F7042.0
tp1383
a(g64
F50.0
tp1384
a(g66
I1
tp1385
a(g68
I8
tp1386
aa(lp1387
(Vadv
p1388
F0.06889564336372847
tp1389
a(Vnoun
p1390
F0.3110435663627153
tp1391
a(Vvg
p1392
F0.013171225937183385
tp1393
a(Vcomp
p1394
F0.02127659574468085
tp1395
a(g422
F0.06788247213779129
tp1396
a(g1005
F0.008105369807497468
tp1397
a(g327
F0.08814589665653495
tp1398
a(g20
F0.171225937183384
tp1399
a(Vverb
p1400
F0.11955420466058764
tp1401
a(g194
F0.0010131712259371835
tp1402
a(g286
F0.008105369807497468
tp1403
a(g242
F0.002026342451874367
tp1404
a(Vadj
p1405
F0.057750759878419454
tp1406
a(g338
F0.06180344478216818
tp1407
a(g30
F27.0
tp1408
a(g32
F101.0
tp1409
a(g34
I26
tp1410
a(g36
I8
tp1411
a(g38
I2
tp1412
a(g40
I1
tp1413
a(g42
I0
tp1414
a(g44
I0
tp1415
a(g46
I34
tp1416
a(g48
I28
tp1417
a(g50
I52
tp1418
a(g52
I2
tp1419
a(g54
I0
tp1420
a(g56
I2
tp1421
a(g58
I0
tp1422
a(g60
F0.00980392156862745
tp1423
a(g62
F3905.0
tp1424
a(g64
F50.0
tp1425
a(g66
I0
tp1426
a(g68
I4
tp1427
aa(lp1428
(g2
F0.06838235294117648
tp1429
a(g174
F0.0014705882352941176
tp1430
a(Vfixed
p1431
F0.0007352941176470588
tp1432
a(Vnoun
p1433
F0.26176470588235295
tp1434
a(Vvg
p1435
F0.011029411764705883
tp1436
a(Vcomp
p1437
F0.033823529411764704
tp1438
a(Vdet
p1439
F0.07205882352941176
tp1440
a(Vnum
p1441
F0.009558823529411765
tp1442
a(g327
F0.14926470588235294
tp1443
a(g20
F0.15
tp1444
a(g746
F0.1161764705882353
tp1445
a(g520
F0.0007352941176470588
tp1446
a(Vpart
p1447
F0.004411764705882353
tp1448
a(g194
F0.0014705882352941176
tp1449
a(Vadj
p1450
F0.05367647058823529
tp1451
a(Vprep
p1452
F0.06544117647058824
tp1453
a(g30
F6.0
tp1454
a(g32
F156.0
tp1455
a(g34
I7
tp1456
a(g36
I48
tp1457
a(g38
I0
tp1458
a(g40
I0
tp1459
a(g42
I0
tp1460
a(g44
I0
tp1461
a(g46
I0
tp1462
a(g48
I0
tp1463
a(g50
I30
tp1464
a(g52
I3
tp1465
a(g54
I0
tp1466
a(g56
I34
tp1467
a(g58
I0
tp1468
a(g60
F0.0078125
tp1469
a(g62
F5627.0
tp1470
a(g64
F50.0
tp1471
a(g66
I2
tp1472
a(g68
I12
tp1473
aa(lp1474
(Vadv
p1475
F0.07606885063853415
tp1476
a(Vpp
p1477
F0.001110494169905608
tp1478
a(g126
F0.29428095502498614
tp1479
a(g1435
F0.012215435868961688
tp1480
a(Vcomp
p1481
F0.031093836757357024
tp1482
a(Vdet
p1483
F0.04886174347584675
tp1484
a(g374
F0.004441976679622432
tp1485
a(g136
F0.1243753470294281
tp1486
a(g20
F0.17101610216546362
tp1487
a(Vverb
p1488
F0.12104386451971128
tp1489
a(g238
F0.001665741254858412
tp1490
a(g141
F0.001110494169905608
tp1491
a(Vpart
p1492
F0.003331482509716824
tp1493
a(Vfixed
p1494
F0.001665741254858412
tp1495
a(Vadj
p1496
F0.05385896724042199
tp1497
a(Vprep
p1498
F0.05385896724042199
tp1499
a(g30
F38.0
tp1500
a(g32
F152.0
tp1501
a(g34
I8
tp1502
a(g36
I22
tp1503
a(g38
I1
tp1504
a(g40
I0
tp1505
a(g42
I0
tp1506
a(g44
I0
tp1507
a(g46
I19
tp1508
a(g48
I8
tp1509
a(g50
I162
tp1510
a(g52
I1
tp1511
a(g54
I0
tp1512
a(g56
I8
tp1513
a(g58
I0
tp1514
a(g60
F0.009900990099009901
tp1515
a(g62
F7415.0
tp1516
a(g64
F50.0
tp1517
a(g66
I0
tp1518
a(g68
I1
tp1519
aa(lp1520
(Vadv
p1521
F0.08016032064128256
tp1522
a(g174
F0.0006680026720106881
tp1523
a(g126
F0.25517702070808285
tp1524
a(g602
F0.014696058784235137
tp1525
a(Vcomp
p1526
F0.01603206412825651
tp1527
a(Vdet
p1528
F0.05945223780895124
tp1529
a(g374
F0.007348029392117568
tp1530
a(g136
F0.16700066800267202
tp1531
a(g20
F0.18036072144288579
tp1532
a(Vverb
p1533
F0.10754843019372078
tp1534
a(g238
F0.008016032064128256
tp1535
a(g141
F0.0006680026720106881
tp1536
a(Vpart
p1537
F0.0033400133600534404
tp1538
a(g618
F0.0006680026720106881
tp1539
a(Vadj
p1540
F0.050100200400801605
tp1541
a(Vprep
p1542
F0.04876419505678023
tp1543
a(g30
F11.0
tp1544
a(g32
F163.0
tp1545
a(g34
I43
tp1546
a(g36
I49
tp1547
a(g38
I2
tp1548
a(g40
I0
tp1549
a(g42
I0
tp1550
a(g44
I0
tp1551
a(g46
I12
tp1552
a(g48
I4
tp1553
a(g50
I61
tp1554
a(g52
I29
tp1555
a(g54
I7
tp1556
a(g56
I20
tp1557
a(g58
I0
tp1558
a(g60
F0.009900990099009901
tp1559
a(g62
F6001.0
tp1560
a(g64
F50.0
tp1561
a(g66
I2
tp1562
a(g68
I6
tp1563
aa.