(lp0
S'35-49\n'
p1
aS'18-24\n'
p2
aS'50-64\n'
p3
aS'50-64\n'
p4
aS'35-49\n'
p5
aS'25-34\n'
p6
aS'35-49\n'
p7
aS'25-34\n'
p8
aS'35-49\n'
p9
aS'35-49\n'
p10
aS'50-64\n'
p11
aS'35-49\n'
p12
aS'50-64\n'
p13
aS'35-49\n'
p14
aS'25-34\n'
p15
aS'25-34\n'
p16
aS'35-49\n'
p17
aS'50-64\n'
p18
aS'35-49\n'
p19
aS'25-34\n'
p20
aS'65-xx\n'
p21
aS'35-49\n'
p22
aS'35-49\n'
p23
aS'50-64\n'
p24
aS'35-49\n'
p25
aS'35-49\n'
p26
aS'35-49\n'
p27
aS'50-64\n'
p28
aS'50-64\n'
p29
aS'25-34\n'
p30
aS'50-64\n'
p31
aS'25-34\n'
p32
aS'50-64\n'
p33
aS'25-34\n'
p34
aS'35-49\n'
p35
aS'35-49\n'
p36
aS'35-49\n'
p37
aS'35-49\n'
p38
aS'50-64\n'
p39
aS'50-64\n'
p40
aS'35-49\n'
p41
aS'18-24\n'
p42
aS'35-49\n'
p43
aS'25-34\n'
p44
aS'35-49\n'
p45
aS'35-49\n'
p46
aS'50-64\n'
p47
aS'18-24\n'
p48
aS'25-34\n'
p49
aS'18-24\n'
p50
aS'25-34\n'
p51
aS'25-34\n'
p52
aS'35-49\n'
p53
aS'25-34\n'
p54
aS'35-49\n'
p55
aS'35-49\n'
p56
aS'25-34\n'
p57
aS'25-34\n'
p58
aS'18-24\n'
p59
aS'35-49\n'
p60
aS'35-49\n'
p61
aS'25-34\n'
p62
aS'65-xx\n'
p63
aS'25-34\n'
p64
aS'65-xx\n'
p65
aS'50-64\n'
p66
aS'18-24\n'
p67
aS'25-34\n'
p68
aS'18-24\n'
p69
aS'25-34\n'
p70
aS'18-24\n'
p71
aS'35-49\n'
p72
aS'35-49\n'
p73
aS'25-34\n'
p74
aS'35-49\n'
p75
aS'35-49\n'
p76
aS'25-34\n'
p77
aS'50-64\n'
p78
aS'35-49\n'
p79
aS'35-49\n'
p80
aS'35-49\n'
p81
aS'25-34\n'
p82
aS'35-49\n'
p83
aS'65-xx\n'
p84
aS'35-49\n'
p85
aS'35-49\n'
p86
aS'50-64\n'
p87
aS'25-34\n'
p88
aS'25-34\n'
p89
aS'35-49\n'
p90
aS'65-xx\n'
p91
aS'35-49\n'
p92
aS'35-49\n'
p93
aS'35-49\n'
p94
aS'35-49\n'
p95
aS'35-49\n'
p96
aS'35-49\n'
p97
aS'35-49\n'
p98
aS'25-34\n'
p99
aS'35-49\n'
p100
aS'25-34\n'
p101
aS'25-34\n'
p102
aS'35-49\n'
p103
aS'35-49\n'
p104
aS'35-49\n'
p105
aS'25-34\n'
p106
aS'25-34\n'
p107
aS'25-34\n'
p108
aS'35-49\n'
p109
aS'35-49\n'
p110
aS'35-49\n'
p111
aS'50-64\n'
p112
aS'35-49\n'
p113
aS'35-49\n'
p114
aS'25-34\n'
p115
aS'50-64\n'
p116
aS'25-34\n'
p117
aS'35-49\n'
p118
aS'35-49\n'
p119
aS'35-49\n'
p120
aS'35-49\n'
p121
aS'25-34\n'
p122
aS'35-49\n'
p123
aS'35-49\n'
p124
aS'50-64\n'
p125
aS'35-49\n'
p126
aS'35-49\n'
p127
aS'35-49\n'
p128
aS'25-34\n'
p129
aS'35-49\n'
p130
aS'35-49\n'
p131
aS'35-49\n'
p132
aS'25-34\n'
p133
aS'35-49\n'
p134
aS'35-49\n'
p135
aS'35-49\n'
p136
aS'35-49\n'
p137
aS'18-24\n'
p138
aS'25-34\n'
p139
aS'25-34\n'
p140
aS'50-64\n'
p141
aS'35-49\n'
p142
aS'35-49\n'
p143
aS'35-49\n'
p144
aS'50-64\n'
p145
aS'35-49\n'
p146
aS'35-49\n'
p147
aS'35-49\n'
p148
aS'35-49\n'
p149
aS'50-64\n'
p150
aS'50-64\n'
p151
aS'35-49\n'
p152
aS'18-24\n'
p153
aS'35-49\n'
p154
aS'50-64\n'
p155
aS'50-64\n'
p156
aS'25-34\n'
p157
aS'50-64\n'
p158
aS'25-34\n'
p159
aS'35-49\n'
p160
aS'35-49\n'
p161
aS'18-24\n'
p162
aS'35-49\n'
p163
aS'25-34\n'
p164
aS'50-64\n'
p165
aS'35-49\n'
p166
aS'25-34\n'
p167
aS'50-64\n'
p168
aS'35-49\n'
p169
aS'18-24\n'
p170
aS'25-34\n'
p171
aS'35-49\n'
p172
aS'25-34\n'
p173
aS'18-24\n'
p174
aS'25-34\n'
p175
aS'35-49\n'
p176
aS'35-49\n'
p177
aS'25-34\n'
p178
aS'25-34\n'
p179
aS'35-49\n'
p180
aS'25-34\n'
p181
aS'35-49\n'
p182
aS'50-64\n'
p183
aS'50-64\n'
p184
aS'35-49\n'
p185
aS'35-49\n'
p186
aS'50-64\n'
p187
aS'25-34\n'
p188
aS'35-49\n'
p189
aS'35-49\n'
p190
aS'35-49\n'
p191
aS'35-49\n'
p192
aS'18-24\n'
p193
aS'25-34\n'
p194
aS'35-49\n'
p195
aS'35-49\n'
p196
aS'25-34\n'
p197
aS'50-64\n'
p198
aS'35-49\n'
p199
aS'35-49\n'
p200
aS'25-34\n'
p201
aS'35-49\n'
p202
aS'35-49\n'
p203
aS'25-34\n'
p204
aS'18-24\n'
p205
aS'35-49\n'
p206
aS'35-49\n'
p207
aS'25-34\n'
p208
aS'25-34\n'
p209
aS'35-49\n'
p210
aS'25-34\n'
p211
aS'25-34\n'
p212
aS'35-49\n'
p213
aS'25-34\n'
p214
aS'35-49\n'
p215
aS'35-49\n'
p216
aS'35-49\n'
p217
aS'35-49\n'
p218
aS'35-49\n'
p219
aS'25-34\n'
p220
aS'35-49\n'
p221
aS'25-34\n'
p222
aS'65-xx\n'
p223
aS'50-64\n'
p224
aS'35-49\n'
p225
aS'35-49\n'
p226
aS'50-64\n'
p227
aS'35-49\n'
p228
aS'35-49\n'
p229
aS'25-34\n'
p230
aS'18-24\n'
p231
aS'25-34\n'
p232
aS'35-49\n'
p233
aS'35-49\n'
p234
aS'35-49\n'
p235
aS'35-49\n'
p236
aS'35-49\n'
p237
aS'50-64\n'
p238
aS'50-64\n'
p239
aS'35-49\n'
p240
aS'35-49\n'
p241
aS'35-49\n'
p242
aS'25-34\n'
p243
aS'50-64\n'
p244
aS'25-34\n'
p245
aS'35-49\n'
p246
aS'25-34\n'
p247
aS'50-64\n'
p248
aS'35-49\n'
p249
aS'35-49\n'
p250
a.