(lp0
S'XX-XX\r\n'
p1
aS'XX-XX\r\n'
p2
aS'XX-XX\r\n'
p3
aS'XX-XX\r\n'
p4
aS'XX-XX\r\n'
p5
aS'XX-XX\r\n'
p6
aS'XX-XX\r\n'
p7
aS'XX-XX\r\n'
p8
aS'XX-XX\r\n'
p9
aS'XX-XX\r\n'
p10
aS'XX-XX\r\n'
p11
aS'XX-XX\r\n'
p12
aS'XX-XX\r\n'
p13
aS'XX-XX\r\n'
p14
aS'XX-XX\r\n'
p15
aS'XX-XX\r\n'
p16
aS'XX-XX\r\n'
p17
aS'XX-XX\r\n'
p18
aS'XX-XX\r\n'
p19
aS'XX-XX\r\n'
p20
aS'XX-XX\r\n'
p21
aS'XX-XX\r\n'
p22
aS'XX-XX\r\n'
p23
aS'XX-XX\r\n'
p24
aS'XX-XX\r\n'
p25
aS'XX-XX\r\n'
p26
aS'XX-XX\r\n'
p27
aS'XX-XX\r\n'
p28
aS'XX-XX\r\n'
p29
aS'XX-XX\r\n'
p30
aS'XX-XX\r\n'
p31
aS'XX-XX\r\n'
p32
aS'XX-XX\r\n'
p33
aS'XX-XX\r\n'
p34
aS'XX-XX\r\n'
p35
aS'XX-XX\r\n'
p36
aS'XX-XX\r\n'
p37
aS'XX-XX\r\n'
p38
aS'XX-XX\r\n'
p39
aS'XX-XX\r\n'
p40
aS'XX-XX\r\n'
p41
aS'XX-XX\r\n'
p42
aS'XX-XX\r\n'
p43
aS'XX-XX\r\n'
p44
aS'XX-XX\r\n'
p45
aS'XX-XX\r\n'
p46
aS'XX-XX\r\n'
p47
aS'XX-XX\r\n'
p48
aS'XX-XX\r\n'
p49
aS'XX-XX\r\n'
p50
aS'XX-XX\r\n'
p51
aS'XX-XX\r\n'
p52
aS'XX-XX\r\n'
p53
aS'XX-XX\r\n'
p54
aS'XX-XX\r\n'
p55
aS'XX-XX\r\n'
p56
aS'XX-XX\r\n'
p57
aS'XX-XX\r\n'
p58
aS'XX-XX\r\n'
p59
aS'XX-XX\r\n'
p60
aS'XX-XX\r\n'
p61
aS'XX-XX\r\n'
p62
aS'XX-XX\r\n'
p63
aS'XX-XX\r\n'
p64
aS'XX-XX\r\n'
p65
aS'XX-XX\r\n'
p66
aS'XX-XX\r\n'
p67
aS'XX-XX\r\n'
p68
aS'XX-XX\r\n'
p69
aS'XX-XX\r\n'
p70
aS'XX-XX\r\n'
p71
aS'XX-XX\r\n'
p72
aS'XX-XX\r\n'
p73
aS'XX-XX\r\n'
p74
aS'XX-XX\r\n'
p75
aS'XX-XX\r\n'
p76
aS'XX-XX\r\n'
p77
aS'XX-XX\r\n'
p78
aS'XX-XX\r\n'
p79
aS'XX-XX\r\n'
p80
aS'XX-XX\r\n'
p81
aS'XX-XX\r\n'
p82
aS'XX-XX\r\n'
p83
aS'XX-XX\r\n'
p84
aS'XX-XX\r\n'
p85
aS'XX-XX\r\n'
p86
aS'XX-XX\r\n'
p87
aS'XX-XX\r\n'
p88
aS'XX-XX\r\n'
p89
aS'XX-XX\r\n'
p90
aS'XX-XX\r\n'
p91
aS'XX-XX\r\n'
p92
aS'XX-XX\r\n'
p93
aS'XX-XX\r\n'
p94
aS'XX-XX\r\n'
p95
aS'XX-XX\r\n'
p96
aS'XX-XX\r\n'
p97
aS'XX-XX\r\n'
p98
aS'XX-XX\r\n'
p99
aS'XX-XX\r\n'
p100
aS'XX-XX\r\n'
p101
aS'XX-XX\r\n'
p102
aS'XX-XX\r\n'
p103
aS'XX-XX\r\n'
p104
aS'XX-XX\r\n'
p105
aS'XX-XX\r\n'
p106
aS'XX-XX\r\n'
p107
aS'XX-XX\r\n'
p108
aS'XX-XX\r\n'
p109
aS'XX-XX\r\n'
p110
aS'XX-XX\r\n'
p111
aS'XX-XX\r\n'
p112
aS'XX-XX\r\n'
p113
aS'XX-XX\r\n'
p114
aS'XX-XX\r\n'
p115
aS'XX-XX\r\n'
p116
aS'XX-XX\r\n'
p117
aS'XX-XX\r\n'
p118
aS'XX-XX\r\n'
p119
aS'XX-XX\r\n'
p120
aS'XX-XX\r\n'
p121
aS'XX-XX\r\n'
p122
aS'XX-XX\r\n'
p123
aS'XX-XX\r\n'
p124
aS'XX-XX\r\n'
p125
aS'XX-XX\r\n'
p126
aS'XX-XX\r\n'
p127
aS'XX-XX\r\n'
p128
aS'XX-XX\r\n'
p129
aS'XX-XX\r\n'
p130
aS'XX-XX\r\n'
p131
aS'XX-XX\r\n'
p132
aS'XX-XX\r\n'
p133
aS'XX-XX\r\n'
p134
aS'XX-XX\r\n'
p135
aS'XX-XX\r\n'
p136
aS'XX-XX\r\n'
p137
aS'XX-XX\r\n'
p138
aS'XX-XX\r\n'
p139
aS'XX-XX\r\n'
p140
aS'XX-XX\r\n'
p141
aS'XX-XX\r\n'
p142
aS'XX-XX\r\n'
p143
aS'XX-XX\r\n'
p144
aS'XX-XX\r\n'
p145
aS'XX-XX\r\n'
p146
aS'XX-XX\r\n'
p147
aS'XX-XX\r\n'
p148
aS'XX-XX\r\n'
p149
aS'XX-XX\r\n'
p150
aS'XX-XX\r\n'
p151
aS'XX-XX\r\n'
p152
aS'XX-XX\r\n'
p153
aS'XX-XX\r\n'
p154
aS'XX-XX\r\n'
p155
aS'XX-XX\r\n'
p156
aS'XX-XX\r\n'
p157
aS'XX-XX\r\n'
p158
aS'XX-XX\r\n'
p159
aS'XX-XX\r\n'
p160
aS'XX-XX\r\n'
p161
aS'XX-XX\r\n'
p162
aS'XX-XX\r\n'
p163
aS'XX-XX\r\n'
p164
aS'XX-XX\r\n'
p165
aS'XX-XX\r\n'
p166
aS'XX-XX\r\n'
p167
aS'XX-XX\r\n'
p168
aS'XX-XX\r\n'
p169
aS'XX-XX\r\n'
p170
aS'XX-XX\r\n'
p171
aS'XX-XX\r\n'
p172
aS'XX-XX\r\n'
p173
aS'XX-XX\r\n'
p174
aS'XX-XX\r\n'
p175
aS'XX-XX\r\n'
p176
aS'XX-XX\r\n'
p177
aS'XX-XX\r\n'
p178
aS'XX-XX\r\n'
p179
aS'XX-XX\r\n'
p180
aS'XX-XX\r\n'
p181
aS'XX-XX\r\n'
p182
aS'XX-XX\r\n'
p183
aS'XX-XX\r\n'
p184
aS'XX-XX\r\n'
p185
aS'XX-XX\r\n'
p186
aS'XX-XX\r\n'
p187
aS'XX-XX\r\n'
p188
aS'XX-XX\r\n'
p189
aS'XX-XX\r\n'
p190
aS'XX-XX\r\n'
p191
aS'XX-XX\r\n'
p192
aS'XX-XX\r\n'
p193
aS'XX-XX\r\n'
p194
aS'XX-XX\r\n'
p195
aS'XX-XX\r\n'
p196
aS'XX-XX\r\n'
p197
aS'XX-XX\r\n'
p198
aS'XX-XX\r\n'
p199
aS'XX-XX\r\n'
p200
aS'XX-XX\r\n'
p201
aS'XX-XX\r\n'
p202
aS'XX-XX\r\n'
p203
aS'XX-XX\r\n'
p204
aS'XX-XX\r\n'
p205
aS'XX-XX\r\n'
p206
aS'XX-XX\r\n'
p207
aS'XX-XX\r\n'
p208
aS'XX-XX\r\n'
p209
aS'XX-XX\r\n'
p210
aS'XX-XX\r\n'
p211
aS'XX-XX\r\n'
p212
aS'XX-XX\r\n'
p213
aS'XX-XX\r\n'
p214
aS'XX-XX\r\n'
p215
aS'XX-XX\r\n'
p216
aS'XX-XX\r\n'
p217
aS'XX-XX\r\n'
p218
aS'XX-XX\r\n'
p219
aS'XX-XX\r\n'
p220
aS'XX-XX\r\n'
p221
aS'XX-XX\r\n'
p222
aS'XX-XX\r\n'
p223
aS'XX-XX\r\n'
p224
aS'XX-XX\r\n'
p225
aS'XX-XX\r\n'
p226
aS'XX-XX\r\n'
p227
aS'XX-XX\r\n'
p228
aS'XX-XX\r\n'
p229
aS'XX-XX\r\n'
p230
aS'XX-XX\r\n'
p231
aS'XX-XX\r\n'
p232
aS'XX-XX\r\n'
p233
aS'XX-XX\r\n'
p234
aS'XX-XX\r\n'
p235
aS'XX-XX\r\n'
p236
aS'XX-XX\r\n'
p237
aS'XX-XX\r\n'
p238
aS'XX-XX\r\n'
p239
aS'XX-XX\r\n'
p240
aS'XX-XX\r\n'
p241
aS'XX-XX\r\n'
p242
aS'XX-XX\r\n'
p243
aS'XX-XX\r\n'
p244
aS'XX-XX\r\n'
p245
aS'XX-XX\r\n'
p246
aS'XX-XX\r\n'
p247
aS'XX-XX\r\n'
p248
aS'XX-XX\r\n'
p249
aS'XX-XX\r\n'
p250
aS'XX-XX\r\n'
p251
aS'XX-XX\r\n'
p252
aS'XX-XX\r\n'
p253
aS'XX-XX\r\n'
p254
aS'XX-XX\r\n'
p255
aS'XX-XX\r\n'
p256
aS'XX-XX\r\n'
p257
aS'XX-XX\r\n'
p258
aS'XX-XX\r\n'
p259
aS'XX-XX\r\n'
p260
aS'XX-XX\r\n'
p261
aS'XX-XX\r\n'
p262
aS'XX-XX\r\n'
p263
aS'XX-XX\r\n'
p264
aS'XX-XX\r\n'
p265
aS'XX-XX\r\n'
p266
aS'XX-XX\r\n'
p267
aS'XX-XX\r\n'
p268
aS'XX-XX\r\n'
p269
aS'XX-XX\r\n'
p270
aS'XX-XX\r\n'
p271
aS'XX-XX\r\n'
p272
aS'XX-XX\r\n'
p273
aS'XX-XX\r\n'
p274
aS'XX-XX\r\n'
p275
aS'XX-XX\r\n'
p276
aS'XX-XX\r\n'
p277
aS'XX-XX\r\n'
p278
aS'XX-XX\r\n'
p279
aS'XX-XX\r\n'
p280
aS'XX-XX\r\n'
p281
aS'XX-XX\r\n'
p282
aS'XX-XX\r\n'
p283
aS'XX-XX\r\n'
p284
aS'XX-XX\r\n'
p285
aS'XX-XX\r\n'
p286
aS'XX-XX\r\n'
p287
aS'XX-XX\r\n'
p288
aS'XX-XX\r\n'
p289
aS'XX-XX\r\n'
p290
aS'XX-XX\r\n'
p291
aS'XX-XX\r\n'
p292
aS'XX-XX\r\n'
p293
aS'XX-XX\r\n'
p294
aS'XX-XX\r\n'
p295
aS'XX-XX\r\n'
p296
aS'XX-XX\r\n'
p297
aS'XX-XX\r\n'
p298
aS'XX-XX\r\n'
p299
aS'XX-XX\r\n'
p300
aS'XX-XX\r\n'
p301
aS'XX-XX\r\n'
p302
aS'XX-XX\r\n'
p303
aS'XX-XX\r\n'
p304
aS'XX-XX\r\n'
p305
aS'XX-XX\r\n'
p306
aS'XX-XX\r\n'
p307
aS'XX-XX\r\n'
p308
aS'XX-XX\r\n'
p309
aS'XX-XX\r\n'
p310
aS'XX-XX\r\n'
p311
aS'XX-XX\r\n'
p312
aS'XX-XX\r\n'
p313
aS'XX-XX\r\n'
p314
aS'XX-XX\r\n'
p315
aS'XX-XX\r\n'
p316
aS'XX-XX\r\n'
p317
aS'XX-XX\r\n'
p318
aS'XX-XX\r\n'
p319
aS'XX-XX\r\n'
p320
aS'XX-XX\r\n'
p321
aS'XX-XX\r\n'
p322
aS'XX-XX\r\n'
p323
aS'XX-XX\r\n'
p324
aS'XX-XX\r\n'
p325
aS'XX-XX\r\n'
p326
aS'XX-XX\r\n'
p327
aS'XX-XX\r\n'
p328
aS'XX-XX\r\n'
p329
aS'XX-XX\r\n'
p330
aS'XX-XX\r\n'
p331
aS'XX-XX\r\n'
p332
aS'XX-XX\r\n'
p333
aS'XX-XX\r\n'
p334
aS'XX-XX\r\n'
p335
aS'XX-XX\r\n'
p336
aS'XX-XX\r\n'
p337
aS'XX-XX\r\n'
p338
aS'XX-XX\r\n'
p339
aS'XX-XX\r\n'
p340
aS'XX-XX\r\n'
p341
aS'XX-XX\r\n'
p342
aS'XX-XX\r\n'
p343
aS'XX-XX\r\n'
p344
aS'XX-XX\r\n'
p345
aS'XX-XX\r\n'
p346
aS'XX-XX\r\n'
p347
aS'XX-XX\r\n'
p348
aS'XX-XX\r\n'
p349
aS'XX-XX\r\n'
p350
aS'XX-XX\r\n'
p351
aS'XX-XX\r\n'
p352
aS'XX-XX\r\n'
p353
aS'XX-XX\r\n'
p354
aS'XX-XX\r\n'
p355
aS'XX-XX\r\n'
p356
aS'XX-XX\r\n'
p357
aS'XX-XX\r\n'
p358
aS'XX-XX\r\n'
p359
aS'XX-XX\r\n'
p360
aS'XX-XX\r\n'
p361
aS'XX-XX\r\n'
p362
aS'XX-XX\r\n'
p363
aS'XX-XX\r\n'
p364
aS'XX-XX\r\n'
p365
aS'XX-XX\r\n'
p366
aS'XX-XX\r\n'
p367
aS'XX-XX\r\n'
p368
aS'XX-XX\r\n'
p369
aS'XX-XX\r\n'
p370
aS'XX-XX\r\n'
p371
aS'XX-XX\r\n'
p372
aS'XX-XX\r\n'
p373
aS'XX-XX\r\n'
p374
aS'XX-XX\r\n'
p375
aS'XX-XX\r\n'
p376
aS'XX-XX\r\n'
p377
aS'XX-XX\r\n'
p378
aS'XX-XX\r\n'
p379
aS'XX-XX\r\n'
p380
aS'XX-XX\r\n'
p381
aS'XX-XX\r\n'
p382
aS'XX-XX\r\n'
p383
aS'XX-XX\r\n'
p384
a.